Archive member included to satisfy reference by file (symbol)

c:/program files/microchip/xc32/v4.45/bin/bin/../../lib/gcc/pic32c/8.3.1/../../../../pic32c/lib/thumb/v7e-m+fp/hard\libpic32c.a(data_init.o)
                              build/kf_freertos_fpga/production/_ext/29258880/startup_xc32.o (__pic32c_data_initialization)
c:/program files/microchip/xc32/v4.45/bin/bin/../../lib/gcc/pic32c/8.3.1/../../../../pic32c/lib/thumb/v7e-m+fp/hard\libc-size-musl.a(memcpy.o)
                              build/kf_freertos_fpga/production/_ext/825500651/plib_i3c_private.o (memcpy)
c:/program files/microchip/xc32/v4.45/bin/bin/../../lib/gcc/pic32c/8.3.1/../../../../pic32c/lib/thumb/v7e-m+fp/hard\libc-size-musl.a(memset.o)
                              build/kf_freertos_fpga/production/_ext/101992513/drv_i3c.o (memset)
c:/program files/microchip/xc32/v4.45/bin/bin/../../lib/gcc/pic32c/8.3.1/../../../../pic32c/lib/thumb/v7e-m+fp/hard\libc-musl.a(__libc_start_main.o)
                              build/kf_freertos_fpga/production/_ext/29258880/startup_xc32.o (__libc_init_array)
c:/program files/microchip/xc32/v4.45/bin/bin/../../lib/gcc/pic32c/8.3.1/../../../../pic32c/lib/thumb/v7e-m+fp/hard\libc-musl.a(libc.o)
                              c:/program files/microchip/xc32/v4.45/bin/bin/../../lib/gcc/pic32c/8.3.1/../../../../pic32c/lib/thumb/v7e-m+fp/hard\libc-musl.a(__libc_start_main.o) (__progname_full)
c:/program files/microchip/xc32/v4.45/bin/bin/../../lib/gcc/pic32c/8.3.1/../../../../pic32c/lib/thumb/v7e-m+fp/hard\libc-musl.a(__environ.o)
                              c:/program files/microchip/xc32/v4.45/bin/bin/../../lib/gcc/pic32c/8.3.1/../../../../pic32c/lib/thumb/v7e-m+fp/hard\libc-musl.a(__libc_start_main.o) (__environ)
c:/program files/microchip/xc32/v4.45/bin/bin/../../lib/gcc/pic32c/8.3.1/thumb/v7e-m+fp/hard\libgcc.a(_paritysi2.o)
                              build/kf_freertos_fpga/production/_ext/825500651/plib_i3c.o (__paritysi2)
c:/program files/microchip/xc32/v4.45/bin/bin/../../lib/gcc/pic32c/8.3.1/../../../../pic32c/lib/thumb/v7e-m+fp/hard\libpic32c.a(pic32_data_init_clear.o)
                              (__dinit_clear_needed)
c:/program files/microchip/xc32/v4.45/bin/bin/../../lib/gcc/pic32c/8.3.1/../../../../pic32c/lib/thumb/v7e-m+fp/hard\libpic32c.a(pic32_data_init_copy.o)
                              (__dinit_copy_needed)
c:/program files/microchip/xc32/v4.45/bin/bin/../../lib/gcc/pic32c/8.3.1/../../../../pic32c/lib/thumb/v7e-m+fp/hard\libpic32c.a(pic32_data_init_decompress.o)
                              (__dinit_decompress_needed)

Microchip PIC32 Memory-Usage Report

ROM Program-Memory Usage
section                    address  length [bytes]      (dec)  Description
-------                 ----------  -------------------------  -----------
.vectors                   0xb0000          0x350         848   
.text                      0xb0350           0x20          32  App's exec code 
.rodata                    0xb0370          0xa58        2648  Read-only const 
.rodata                    0xb0dc8          0x6c8        1736  Read-only const 
.text.test_xfers_all       0xb1490          0x440        1088   
.text._drv_i3c_xfers       0xb18d0          0x418        1048   
.text.DRV_I3C_do_DAA       0xb1ce8          0x344         836   
.dinit                     0xb202c          0x2e0         736   
.rodata                    0xb230c          0x2ac         684  Read-only const 
.text.DRV_I3C_Init         0xb25b8          0x268         616   
.text._drv_i3c_isr_targ    0xb2820          0x244         580   
.text._drv_i3c_isr_xfer    0xb2a64          0x238         568   
.text._drv_i3c_CCC         0xb2c9c          0x218         536   
.text.xTaskIncrementTic    0xb2eb4          0x20c         524   
.text._drv_i3c_isr_targ    0xb30c0          0x1fc         508   
.text.DRV_I3C_target_ib    0xb32bc          0x1d8         472   
.text.xTaskResumeAll       0xb3494          0x1d8         472   
.text._drv_i3c_ibi_isr     0xb366c          0x1b8         440   
.text.i3c_bus_init         0xb3824          0x1b8         440   
.text.xQueueSemaphoreTa    0xb39dc          0x190         400   
.text.xTaskRemoveFromEv    0xb3b6c          0x190         400   
.text.mini_vsnprintf       0xb3cfc          0x17e         382   
.text.Dummy_Handler        0xb3e7a            0x2           2   
.text.DRV_I3C_Xfers        0xb3e7c          0x174         372   
.text.uart_protocol_ini    0xb3ff0          0x170         368   
.text.DRV_I3C_attach_de    0xb4160          0x15c         348   
.text.prvProcessReceive    0xb42bc          0x15c         348   
.text.xQueueGenericSend    0xb4418          0x154         340   
.text.xQueueReceive        0xb456c          0x144         324   
.text.p_uart_line_statu    0xb46b0          0x140         320   
.text.xTaskPriorityInhe    0xb47f0          0x13c         316   
.text.i3c_mec5_tgt_wka_    0xb492c          0x138         312   
.text.vTaskPriorityDisi    0xb4a64          0x12c         300   
.text.prvAddNewTaskToRe    0xb4b90          0x124         292   
.text._drv_ibi_task        0xb4cb4          0x120         288   
.text.mini_itoa            0xb4dd4          0x11c         284   
.text.DRV_I3C_IBI_enabl    0xb4ef0          0x110         272   
.text.DRV_I3C_IBI_disab    0xb5000          0x110         272   
.text.i3c_bus_setdasa      0xb5110          0x110         272   
.text.i3c_addr_slots_in    0xb5220          0x10e         270   
.text.prvInitialiseNewT    0xb532e          0x10c         268   
.text.Dummy_App_Func       0xb543a            0x2           2   
.text.I3C_DO_Xfer_Prep     0xb543c          0x108         264   
.text._i3c_push_pull_ti    0xb5544          0x104         260   
.text.xTaskPriorityDisi    0xb5648          0x104         260   
.text.prvAddCurrentTask    0xb574c          0x100         256   
.text.GPIO_PropertySet     0xb584c           0xf4         244   
.text.I3C_DO_CCC           0xb5940           0xec         236   
.text.TASK1_Tasks          0xb5a2c           0xec         236   
.text.DRV_I3C_ISR_Callb    0xb5b18           0xea         234   
.text.__dummy              0xb5c02            0x2           2   
.text.xQueueGenericRese    0xb5c04           0xe8         232   
.rodata                    0xb5cec           0xe8         232  Read-only const 
.text.TASK2_Tasks          0xb5dd4           0xe8         232   
.text.i3c_determine_def    0xb5ebc           0xde         222   
.text._drv_i3c_initiate    0xb5f9c           0xdc         220   
.text.i3c_device_basic_    0xb6078           0xd8         216   
.text.vTaskSwitchContex    0xb6150           0xd8         216   
.text.prvCopyDataToQueu    0xb6228           0xd4         212   
.text.uart_hw_init         0xb62fc           0xd0         208   
.text.i3c_ccc_do_setdas    0xb63cc           0xca         202   
.text._drv_tgt_rx_task     0xb6498           0xc8         200   
.text.p_uart_fifo_contr    0xb6560           0xc8         200   
.text.i3c_attach_i2c_de    0xb6628           0xc6         198   
.text.DRV_I3C_do_CCC       0xb66f0           0xc4         196   
.text._i3c_ibi_data_rea    0xb67b4           0xc4         196   
.text.DRV_I3C_target_tx    0xb6878           0xc0         192   
.text._drv_i3c_isr_cont    0xb6938           0xbc         188   
.text.GPIO_Initialize      0xb69f4           0xb8         184   
.text.i3c_attach_i3c_de    0xb6aac           0xb6         182   
.text._i3c_DCT_read        0xb6b62           0xb6         182   
.text._drv_i3c_targets_    0xb6c18           0xb0         176   
.text.pvPortMalloc         0xb6cc8           0xb0         176   
.rodata                    0xb6d78           0xb0         176  Read-only const 
.text.I3C_Enable           0xb6e28           0xa6         166   
.text.xQueueGiveFromISR    0xb6ece           0xa6         166   
.text.prvUnlockQueue       0xb6f74           0xa4         164   
.text.i3c_ccc_do_getmrl    0xb7018           0xa2         162   
.text.OSAL_SEM_Create      0xb70ba           0xa2         162   
.text.DRV_I3C_detach_de    0xb715c           0x9c         156   
.text.DRV_I3C_reattach_    0xb71f8           0x9c         156   
.text.prvProcessTimerOr    0xb7294           0x9c         156   
.text.i3c_detach_i3c_de    0xb7330           0x9a         154   
.text._drv_pending_xfer    0xb73cc           0x98         152   
.text.DRV_I3C_configure    0xb7464           0x96         150   
.text._drv_i3c_free_tgt    0xb74fa           0x94         148   
.text.xTaskCheckForTime    0xb7590           0x94         148   
.text.i3c_write_read       0xb7624           0x90         144   
.text.tgt0_write_receiv    0xb76b4           0x90         144   
.text.i3c_addr_slots_se    0xb7744           0x8e         142   
.text.i3c_reattach_i3c_    0xb77d2           0x8c         140   
.text.test_private_writ    0xb7860           0x88         136   
.text.prvInsertTimerInA    0xb78e8           0x84         132   
.text.i3c_ccc_do_getmwl    0xb796c           0x82         130   
.text.xTaskCreate          0xb79ee           0x82         130   
.text._i3c_tgt_raise_ib    0xb7a70           0x80         128   
.text.vTaskStartSchedul    0xb7af0           0x80         128   
.text.prvInitialiseTask    0xb7b70           0x80         128   
.text.xQueueGenericCrea    0xb7bf0           0x7e         126   
.text.I3C_Target_Init      0xb7c70           0x7c         124   
.text._i3c_fifo_read       0xb7cec           0x7c         124   
.text.PCR_Initialize       0xb7d68           0x7c         124   
.text.I3C_TGT_PID_set      0xb7de4           0x7a         122   
.text._drv_i3c_DAT_free    0xb7e5e           0x78         120   
.text.sys_slist_remove     0xb7ed6           0x78         120   
.text.SYS_Tasks            0xb7f50           0x78         120   
.text.print_buf            0xb7fc8           0x74         116   
.text._drv_i3c_targets_    0xb803c           0x74         116   
.text._drv_i3c_DAT_idx_    0xb80b0           0x74         116   
.text.I3C_TGT_DEFSLVS_D    0xb8124           0x74         116   
.text.I3C_DO_DAA           0xb8198           0x74         116   
.text.I3C_IBI_SIR_Enabl    0xb820c           0x74         116   
.text._i3c_fifo_write      0xb8280           0x74         116   
.text.test_private_writ    0xb82f4           0x74         116   
.text.test_private_read    0xb8368           0x74         116   
.rodata                    0xb83dc           0x74         116  Read-only const 
.text.i3c_ccc_do_events    0xb8450           0x72         114   
.text.vListInsert          0xb84c2           0x72         114   
.text.vTaskPlaceOnEvent    0xb8534           0x70         112   
.text._i3c_sec_host_stu    0xb85a4           0x6c         108   
.rodata                    0xb8610           0x68         104  Read-only const 
.text.I3C_Thresholds_In    0xb8678           0x68         104   
.text.I3C_IBI_SIR_Disab    0xb86e0           0x68         104   
.text.p_uart_baud_divis    0xb8748           0x68         104   
.text.pxPortInitialiseS    0xb87b0           0x68         104   
.rodata                    0xb8818            0x8           8  Read-only const 
.text.xPortPendSVHandle    0xb8820           0x68         104   
.text.vQueueWaitForMess    0xb8888           0x68         104   
.text.NVIC_Initialize      0xb88f0           0x64         100   
.text.i3c_dev_list_find    0xb8954           0x62          98   
.text._i3c_tgt_response    0xb89b6           0x62          98   
.rodata.mchp_i3c_driver    0xb8a18           0x60          96   
.text.i3c_addr_slots_st    0xb8a78           0x60          96   
.text.I3C_Target_MRL_MW    0xb8ad8           0x60          96   
.text.I3C_GRP_Interrupt    0xb8b38           0x60          96   
.text._i2c_fm_timing_se    0xb8b98           0x60          96   
.text._i3c_open_drain_t    0xb8bf8           0x60          96   
.text.prvProcessExpired    0xb8c58           0x60          96   
.text._i3c_SDCT_read       0xb8cb8           0x5e          94   
.text._i3c_tgt_max_spee    0xb8d16           0x5e          94   
.text.I3C_queue_depths_    0xb8d74           0x5c          92   
.text.I3C_DO_TGT_Xfer      0xb8dd0           0x5c          92   
.text.__libc_start_init    0xb8e2c           0x5c          92   
.text._drv_i3c_free_ibi    0xb8e88           0x58          88   
.text._i2c_fmp_timing_s    0xb8ee0           0x58          88   
.text.prvCheckTasksWait    0xb8f38           0x58          88   
.text.i3c_ccc_do_getbcr    0xb8f90           0x56          86   
.text.i3c_ccc_do_getdcr    0xb8fe6           0x56          86   
.text._drv_i3c_targets_    0xb903c           0x54          84   
.text.OSAL_SEM_Pend        0xb9090           0x54          84   
.text.__NVIC_SetPriorit    0xb90e4           0x54          84   
.text.xPortStartSchedul    0xb9138           0x54          84   
.text.prvCheckForValidL    0xb918c           0x54          84   
.text.uxListRemove         0xb91e0           0x54          84   
.text.i3c_write            0xb9234           0x54          84   
.text.i3c_read             0xb9288           0x54          84   
.text._i3c_sda_hld_swit    0xb92dc           0x52          82   
.text._i3c_host_stuck_s    0xb932e           0x52          82   
.text._i3c_host_tx_dma_    0xb9380           0x52          82   
.text._i3c_host_rx_dma_    0xb93d2           0x52          82   
.text.get_event            0xb9424           0x52          82   
.text.DRV_I3C1_Initiali    0xb9478           0x50          80   
.text.sys_slist_append     0xb94c8           0x50          80   
.text.I3C_Sec_Host_Conf    0xb9518           0x50          80   
.text.I3C_DAT_DynamicAd    0xb9568           0x50          80   
.text._i3c_tgt_pid_set     0xb95b8           0x50          80   
.text.p_uart_baud_clk_s    0xb9608           0x50          80   
.text.SYS_Initialize       0xb9658           0x50          80   
.text._drv_i3c_targets_    0xb96a8           0x4c          76   
.text._drv_tgt_tx_done_    0xb96f4           0x4c          76   
.text.OSAL_SEM_PostISR     0xb9740           0x4c          76   
.text.ECIA_GIRQResultGe    0xb978c           0x4c          76   
.text.I3C_Host_Config      0xb97d8           0x4c          76   
.text._i3c_enable          0xb9824           0x4c          76   
.text.Reset_Handler        0xb9870           0x4c          76   
.text.prvCopyDataFromQu    0xb98bc           0x4c          76   
.text.prvSwitchTimerLis    0xb9908           0x4c          76   
.text.sys_slist_find_an    0xb9954           0x4a          74   
.text.i3c_dev_list_i3c_    0xb999e           0x4a          74   
.text.ECIA_GIRQSourceCl    0xb99e8           0x48          72   
.text._i3c_response_sts    0xb9a30           0x48          72   
.text.__NVIC_SetPriorit    0xb9a78           0x48          72   
.text.p_uart_line_contr    0xb9ac0           0x48          72   
.text.xTimerCreateTimer    0xb9b08           0x48          72   
.text.prvGetNextExpireT    0xb9b50           0x48          72   
.text.vTaskDelay           0xb9b98           0x48          72   
.text.__dinit_decompres    0xb9be0           0x46          70   
.text.i3c_ccc_do_events    0xb9c26           0x44          68   
.text.ECIA_GIRQSourceEn    0xb9c6c           0x44          68   
.text.p_uart_interrupt_    0xb9cb0           0x44          68   
.text.p_uart_interrupt_    0xb9cf4           0x44          68   
.text.FPU_Enable           0xb9d38           0x44          68   
.text.i3c_ccc_do_rstact    0xb9d7c           0x42          66   
.text                      0xb9dc0           0x40          64  App's exec code 
.text.set_gpio_config_i    0xb9e00           0x40          64   
.text.I3C_TGT_Error_Rec    0xb9e40           0x40          64   
.text._i3c_bus_free_tim    0xb9e80           0x40          64   
.text.p_uart_instance_a    0xb9ec0           0x40          64   
.text.p_uart_enable_dis    0xb9f00           0x40          64   
.text.xPortSysTickHandl    0xb9f40           0x40          64   
.text.prvReloadTimer       0xb9f80           0x40          64   
.text.prvSampleTimeNow     0xb9fc0           0x40          64   
.text.vListInitialise      0xba000           0x40          64   
.text.TASK1_Initialize     0xba040           0x40          64   
.text.p_uart_tx_buff_wr    0xba080           0x3e          62   
.text.prvInitialiseNewQ    0xba0be           0x3e          62   
.text.xQueueCreateCount    0xba0fc           0x3e          62   
.text.DRV_I3C0_Initiali    0xba13c           0x3c          60   
.text.i3c_addr_slots_ne    0xba178           0x3c          60   
.text.I3C_Controller_Cl    0xba1b4           0x3c          60   
.text.I3C_TGT_IBI_SIR_R    0xba1f0           0x3c          60   
.text._i3c_bus_availabl    0xba22c           0x3c          60   
.text._i3c_dev_char_tab    0xba268           0x3c          60   
.text._i3c_tgt_ibi_resp    0xba2a4           0x3c          60   
.text.__NVIC_EnableIRQ     0xba2e0           0x3c          60   
.text.SER_init             0xba31c           0x3a          58   
.text.GPIO_PinDirConfig    0xba356           0x3a          58   
.text.GPIO_PinInputConf    0xba390           0x3a          58   
.text.GPIO_PinGroupOutp    0xba3ca           0x3a          58   
.text.GPIO_PinMUXConfig    0xba404           0x3a          58   
.text.GPIO_PinPolarityC    0xba43e           0x3a          58   
.text.GPIO_PinOuputBuff    0xba478           0x3a          58   
.text.GPIO_PinPullUpPul    0xba4b2           0x3a          58   
.text.GPIO_PinIntDetect    0xba4ec           0x3a          58   
.text.GPIO_PinPwrGateCo    0xba526           0x3a          58   
.text.I3C_Is_Current_Ro    0xba560           0x3a          58   
.text.I3C_DAT_DynamicAd    0xba59a           0x3a          58   
.text._i3c_tgt_clk_to_d    0xba5d4           0x3a          58   
.text.I3C_CallbackRegis    0xba610           0x38          56   
.text._i3c_resp_queue_t    0xba648           0x38          56   
.text._i3c_bus_idle_tim    0xba680           0x38          56   
.text._i3c_host_dma_tx_    0xba6b8           0x38          56   
.text._i3c_host_dma_rx_    0xba6f0           0x38          56   
.text._i3c_sec_host_dma    0xba728           0x38          56   
.text._i3c_sec_host_dma    0xba760           0x38          56   
.text.vPortSetupTimerIn    0xba798           0x38          56   
.text.prvResetNextTaskU    0xba7d0           0x38          56   
.text.tgt0_tx_done_cb      0xba808           0x38          56   
.text.tgt_test_xfer_con    0xba840           0x38          56   
.text.DRV_I3C_Bus_Init     0xba878           0x36          54   
.text._i3c_host_port_se    0xba8ae           0x36          54   
.text._i3c_sec_host_por    0xba8e4           0x36          54   
.text.uart_pins_init       0xba91a           0x36          54   
.text.p_uart_config_sel    0xba950           0x36          54   
.rodata                    0xba988           0x34          52  Read-only const 
.text.I3C_Controller_Cl    0xba9bc           0x34          52   
.text.I3C_Target_Interr    0xba9f0           0x34          52   
.text.I3C_Controller_In    0xbaa24           0x34          52   
.text._i3c_static_addr_    0xbaa58           0x34          52   
.text._i3c_DAT_write       0xbaa8c           0x34          52   
.text._i3c_DAT_read        0xbaac0           0x34          52   
.text.vPortEnterCritica    0xbaaf4           0x34          52   
.text.vPortExitCritical    0xbab28           0x34          52   
.text.prvInitialiseMute    0xbab5c           0x34          52   
.text.__pic32c_data_ini    0xbab90           0x34          52   
.text._drv_dct_info_ini    0xbabc4           0x32          50   
.text.i3c_do_ccc           0xbabf6           0x32          50   
.text.uart_transmit        0xbac28           0x32          50   
.text.i3c_target_regist    0xbac5a           0x32          50   
.text._trace_puts          0xbac8c           0x30          48   
.text.i3c_device_find      0xbacbc           0x30          48   
.text.i3c_ccc_do_rstdaa    0xbacec           0x30          48   
.text.ECIA_Initialize      0xbad1c           0x30          48   
.text._i3c_ibi_data_thr    0xbad4c           0x30          48   
.text._i3c_ibi_status_t    0xbad7c           0x30          48   
.text._i3c_rx_buf_thres    0xbadac           0x30          48   
.text._i3c_tx_start_thr    0xbaddc           0x30          48   
.text._i3c_rx_start_thr    0xbae0c           0x30          48   
.text._i3c_xfer_err_sts    0xbae3c           0x30          48   
.text._i3c_sec_host_tx_    0xbae6c           0x30          48   
.text._i3c_sec_host_rx_    0xbae9c           0x30          48   
.text._i3c_dev_addr_tab    0xbaecc           0x30          48   
.text._i3c_soft_reset      0xbaefc           0x30          48   
.text._i3c_tgt_MRL_upda    0xbaf2c           0x30          48   
.text._i3c_tgt_MWL_upda    0xbaf5c           0x30          48   
.text.prvTaskExitError     0xbaf8c           0x30          48   
.text.xQueueCreateMutex    0xbafbc           0x30          48   
.text.prvGetDisinheritP    0xbafec           0x30          48   
.text.prvIsQueueFull       0xbb01c           0x30          48   
.text.prvIdleTask          0xbb04c           0x30          48   
.text.i3c_transfer         0xbb07c           0x30          48   
.text.tgt0_read_request    0xbb0ac           0x30          48   
.text.tgt0_read_process    0xbb0dc           0x30          48   
.text.tgt_test_xfer_con    0xbb10c           0x30          48   
.text.sendchar             0xbb13c           0x2e          46   
.text.mini_strlen          0xbb16a           0x2e          46   
.text.DRV_I3C_target_un    0xbb198           0x2e          46   
.text.i3c_do_daa           0xbb1c6           0x2e          46   
.text.i3c_addr_slots_is    0xbb1f4           0x2e          46   
.text.I3C_Is_Current_Ro    0xbb222           0x2e          46   
.text.I3C_TGT_IBI_MR_Ra    0xbb250           0x2e          46   
.text._i3c_cmd_queue_th    0xbb27e           0x2e          46   
.text._i3c_tx_buf_thres    0xbb2ac           0x2e          46   
.text.p_uart_line_contr    0xbb2da           0x2e          46   
.text._drv_wait_for_res    0xbb308           0x2c          44   
.text.OSAL_CRIT_Enter      0xbb334           0x2c          44   
.text.OSAL_CRIT_Leave      0xbb360           0x2c          44   
.text._i3c_intr_IBI_ena    0xbb38c           0x2c          44   
.text._i3c_intr_IBI_dis    0xbb3b8           0x2c          44   
.text._i3c_ibi_status_c    0xbb3e4           0x2c          44   
.text._i3c_disable         0xbb410           0x2c          44   
.text._i3c_hot_join_dis    0xbb43c           0x2c          44   
.text._i3c_tgt_hot_join    0xbb468           0x2c          44   
.text._i3c_xfers_reset     0xbb494           0x2c          44   
.text._i3c_rx_fifo_dept    0xbb4c0           0x2c          44   
.text._i3c_tgt_raise_ib    0xbb4ec           0x2c          44   
.text.prvPortStartFirst    0xbb518           0x2c          44   
.text.prvIsQueueEmpty      0xbb544           0x2c          44   
.text.vTaskPlaceOnEvent    0xbb570           0x2c          44   
.text.vTaskInternalSetT    0xbb59c           0x2c          44   
.text.tgt0_write_reques    0xbb5c8           0x2c          44   
.text.tgt0_stop_cb         0xbb5f4           0x2c          44   
.text.OSAL_SEM_Post        0xbb620           0x2a          42   
.text.I3C_DO_Xfer          0xbb64a           0x2a          42   
.text._i3c_tx_fifo_dept    0xbb674           0x2a          42   
.text._i3c_tgt_SIR_enab    0xbb69e           0x2a          42   
.text._i3c_tgt_MR_enabl    0xbb6c8           0x2a          42   
.rodata                    0xbb6f4           0x28          40  Read-only const 
.text.ECIA_GIRQBlockEna    0xbb71c           0x28          40   
.text.I3C_DCT_read         0xbb744           0x28          40   
.text.I3C_SDCT_read        0xbb76c           0x28          40   
.text.I3C_TGT_RoleSwitc    0xbb794           0x28          40   
.text._i3c_dynamic_addr    0xbb7bc           0x28          40   
.text._i3c_cmd_fifo_dep    0xbb7e4           0x28          40   
.text._i3c_resp_fifo_de    0xbb80c           0x28          40   
.text._i3c_ibi_fifo_dep    0xbb834           0x28          40   
.text.uart_id_is_valid     0xbb85c           0x28          40   
.text.trace_init           0xbb884            0xc          12   
.text.vPortSVCHandler      0xbb890           0x28          40   
.text.pvTaskIncrementMu    0xbb8b8           0x28          40   
.text.set_event_from_is    0xbb8e0           0x28          40   
.text.i3c_ibi_has_paylo    0xbb908           0x26          38   
.text.i3c_device_is_ibi    0xbb92e           0x26          38   
.text._i3c_resp_buf_lev    0xbb954           0x26          38   
.text.tracex               0xbb97a           0x24          36   
.text.DRV_I3C_device_fi    0xbb99e           0x24          36   
.text.DRV_I3C_target_re    0xbb9c2           0x24          36   
.text._i3c_operation_mo    0xbb9e6           0x24          36   
.rodata                    0xbba0c           0x24          36  Read-only const 
.text.prvTimerTask         0xbba30           0x24          36   
.text.small_wait_with_n    0xbba54           0x22          34   
.text.sys_slist_is_empt    0xbba76           0x22          34   
.text.sys_slist_peek_ne    0xbba98           0x22          34   
.text.I3C_Is_Current_Ro    0xbbaba           0x22          34   
.text._i3c_notify_sir_r    0xbbadc           0x22          34   
.text._i3c_notify_mr_re    0xbbafe           0x22          34   
.text._i3c_dev_operatio    0xbbb20           0x22          34   
.text._i3c_tgt_dyn_addr    0xbbb42           0x22          34   
.text._i3c_tgt_MRL_get     0xbbb64           0x22          34   
.text.tgt_test_xfers_al    0xbbb86           0x22          34   
.text.i3c_addr_slots_ma    0xbbba8           0x20          32   
.text.i3c_addr_slots_ma    0xbbbc8           0x20          32   
.text.i3c_addr_slots_ma    0xbbbe8           0x20          32   
.text.i3c_addr_slots_ma    0xbbc08           0x20          32   
.text.sys_slist_init       0xbbc28           0x20          32   
.text._i3c_ibi_queue_st    0xbbc48           0x20          32   
.text._i3c_resume          0xbbc68           0x20          32   
.text._i2c_slave_presen    0xbbc88           0x20          32   
.text._i3c_dev_controll    0xbbca8           0x20          32   
.text._i3c_dev_role_con    0xbbcc8           0x20          32   
.text._i3c_tgt_MWL_get     0xbbce8           0x20          32   
.text.xTaskGetTickCount    0xbbd08           0x20          32   
.text.prvDeleteTCB         0xbbd28           0x20          32   
.text.TASK3_Tasks          0xbbd48           0x20          32   
.text.I3C_Thresholds_Re    0xbbd68           0x1e          30   
.text.I3C_DAT_info_get     0xbbd86           0x1e          30   
.text.I3C_DCT_info_get     0xbbda4           0x1e          30   
.text._i3c_notify_hj_re    0xbbdc2           0x1e          30   
.text._i3c_scl_low_mst_    0xbbde0           0x1e          30   
.text.vApplicationStack    0xbbdfe           0x1e          30   
.text                      0xbbe1c           0x1e          30  App's exec code 
.text.__dinit_copy         0xbbe3a           0x1e          30   
.rodata.__FUNCTION__.11    0xbbe58           0x1c          28   
.rodata.__FUNCTION__.11    0xbbe74           0x1c          28   
.text.z_snode_next_set     0xbbe90           0x1c          28   
.text.z_slist_head_set     0xbbeac           0x1c          28   
.text.z_slist_tail_set     0xbbec8           0x1c          28   
.text.I3C_TGT_IBI_SIR_R    0xbbee4           0x1c          28   
.text.I3C_Xfer_Error_Re    0xbbf00           0x1c          28   
.text._i3c_intr_sts_cle    0xbbf1c           0x1c          28   
.text._i3c_intr_sts_ena    0xbbf38           0x1c          28   
.text._i3c_intr_sgnl_en    0xbbf54           0x1c          28   
.text._i3c_command_writ    0xbbf70           0x1c          28   
.text._i3c_tgt_dyn_addr    0xbbf8c           0x1c          28   
.text.vTaskSuspendAll      0xbbfa8           0x1c          28   
.text.memcpy               0xbbfc4           0x1c          28   
.text._i3c_tx_fifo_rst     0xbbfe0           0x1a          26   
.text._i3c_rx_fifo_rst     0xbbffa           0x1a          26   
.text._i3c_cmd_queue_rs    0xbc014           0x1a          26   
.text.vApplicationMallo    0xbc02e           0x1a          26   
.text.vListInitialiseIt    0xbc048           0x1a          26   
.rodata.__FUNCTION__.11    0xbc064           0x18          24   
.rodata.__FUNCTION__.11    0xbc07c           0x18          24   
.text.z_snode_next_peek    0xbc094           0x18          24   
.text.sys_slist_peek_he    0xbc0ac           0x18          24   
.text.sys_slist_peek_ta    0xbc0c4           0x18          24   
.text.sys_slist_peek_ne    0xbc0dc           0x18          24   
.text.I3C_TGT_is_dyn_ad    0xbc0f4           0x18          24   
.text.I3C_TGT_dyn_addr_    0xbc10c           0x18          24   
.text._i3c_intr_sts_get    0xbc124           0x18          24   
.text.vPortEnableVFP       0xbc13c           0x18          24   
.text.vTaskMissedYield     0xbc154           0x18          24   
.rodata.__FUNCTION__.11    0xbc16c           0x18          24   
.rodata.__FUNCTION__.11    0xbc184           0x18          24   
.rodata.__FUNCTION__.11    0xbc19c           0x18          24   
.rodata.__FUNCTION__.11    0xbc1b4           0x18          24   
.text.TASK2_Initialize     0xbc1cc           0x18          24   
.text.TASK3_Initialize     0xbc1e4           0x18          24   
.text.DRV_IBI_Task         0xbc1fc           0x16          22   
.text.DRV_TGT_RX_Task      0xbc212           0x16          22   
.text.DRV_TGT_TX_Done_T    0xbc228           0x16          22   
.text.I3C_Soft_Reset       0xbc23e           0x16          22   
.text.I3C_Xfer_Reset       0xbc254           0x16          22   
.rodata.__FUNCTION__.11    0xbc26c           0x14          20   
.rodata.__FUNCTION__.11    0xbc280           0x14          20   
.rodata.__FUNCTION__.10    0xbc294           0x14          20   
.text.vPortFree            0xbc2a8           0x14          20   
.text.get_task1_context    0xbc2bc           0x14          20   
.text.get_task2_context    0xbc2d0           0x14          20   
.rodata                    0xbc2e4           0x14          20  Read-only const 
.text.memset               0xbc2f8           0x14          20   
.text.__dinit_clear        0xbc30c           0x12          18   
.rodata.__FUNCTION__.11    0xbc320           0x10          16   
.rodata.__FUNCTION__.11    0xbc330           0x10          16   
.rodata.__FUNCTION__.11    0xbc340           0x10          16   
.text.main                 0xbc350           0x10          16   
.text.EC_REG_BANK_Initi    0xbc360            0xe          14   
.text._TASK1_Tasks         0xbc36e            0xe          14   
.text._TASK2_Tasks         0xbc37c            0xe          14   
.text._TASK3_Tasks         0xbc38a            0xe          14   
.text.GIRQ13_Handler       0xbc398            0xc          12   
.rodata                    0xbc3a4            0x8           8  Read-only const 
.text.NonMaskableInt_Ha    0xbc3ac            0x6           6   
.text.HardFault_Handler    0xbc3b2            0x6           6   
.text.DebugMonitor_Hand    0xbc3b8            0x6           6   
.text.MemoryManagement_    0xbc3be            0x6           6   
.text.BusFault_Handler     0xbc3c4            0x6           6   
.text.UsageFault_Handle    0xbc3ca            0x6           6   
.text.__dummy_decompres    0xbc3d0            0x4           4   
      Total ROM used  :      0xc3ae       50094  15.3% of 0x50000
        --------------------------------------------------------------------------
         Total Program Memory used  :      0xc3ae       50094  15.3% of 0x50000
        --------------------------------------------------------------------------


RAM Data-Memory Usage
section                    address  length [bytes]      (dec)  Description
-------                 ----------  -------------------------  -----------
.bss.ucHeap               0x118000         0x2800       10240   
.bss.pending_xfer_ctxt    0x11a800          0x188         392   
.bss.tx_max               0x11a988           0x80         128   
.bss.pxReadyTasksLists    0x11aa08           0x64         100   
.bss                      0x11aa6c           0x50          80  Uninitialized data 
.bss                      0x11aabc           0x1c          28  Uninitialized data 
.bss.I3C0_DEV             0x11aad8           0x14          20   
.bss.I3C1_DEV             0x11aaec           0x14          20   
.bss.xActiveTimerList1    0x11ab00           0x14          20   
.bss.xActiveTimerList2    0x11ab14           0x14          20   
.bss.xDelayedTaskList1    0x11ab28           0x14          20   
.bss.xDelayedTaskList2    0x11ab3c           0x14          20   
.bss.xPendingReadyList    0x11ab50           0x14          20   
.bss.xTasksWaitingTermi   0x11ab64           0x14          20   
.bss.xSuspendedTaskList   0x11ab78           0x14          20   
.bss.I3CObj               0x11ab8c           0x10          16   
.bss.tgt0_cfg             0x11ab9c            0xc          12   
.bss.rx_buff              0x11aba8            0xa          10   
.bss.tid                  0x11abb2            0x1           1   
.bss.task1Context         0x11abb4            0x8           8   
.bss.task2Data            0x11abbc            0x8           8   
.bss.task2Context         0x11abc4            0x8           8   
.bss.targets_ibi_enable   0x11abcc            0x4           4   
.bss.i3c0Dev              0x11abd0            0x4           4   
.bss.i3c1Dev              0x11abd4            0x4           4   
.bss.xTASK1_Tasks         0x11abd8            0x4           4   
.bss.xTASK2_Tasks         0x11abdc            0x4           4   
.bss.xTASK3_Tasks         0x11abe0            0x4           4   
.bss.xNextFreeByte        0x11abe4            0x4           4   
.bss.pucAlignedHeap.616   0x11abe8            0x4           4   
.bss.pxCurrentTimerList   0x11abec            0x4           4   
.bss.pxOverflowTimerLis   0x11abf0            0x4           4   
.bss.xTimerQueue          0x11abf4            0x4           4   
.bss.xTimerTaskHandle     0x11abf8            0x4           4   
.bss.xLastTime.6473       0x11abfc            0x4           4   
.bss.pxCurrentTCB         0x11ac00            0x4           4   
.bss.pxDelayedTaskList    0x11ac04            0x4           4   
.bss.pxOverflowDelayedT   0x11ac08            0x4           4   
.bss.uxDeletedTasksWait   0x11ac0c            0x4           4   
.bss.uxCurrentNumberOfT   0x11ac10            0x4           4   
.bss.xTickCount           0x11ac14            0x4           4   
.bss.uxTopReadyPriority   0x11ac18            0x4           4   
.bss.xSchedulerRunning    0x11ac1c            0x4           4   
.bss.xPendedTicks         0x11ac20            0x4           4   
.bss.xYieldPending        0x11ac24            0x4           4   
.bss.xNumOfOverflows      0x11ac28            0x4           4   
.bss.uxTaskNumber         0x11ac2c            0x4           4   
.bss.xNextTaskUnblockTi   0x11ac30            0x4           4   
.bss.xIdleTaskHandle      0x11ac34            0x4           4   
.bss.uxSchedulerSuspend   0x11ac38            0x4           4   
.bss.uartMutexLock        0x11ac3c            0x4           4   
.bss                      0x11ac40            0x4           4  Uninitialized data 
.bss                      0x11ac44            0x4           4  Uninitialized data 
.bss.task3Data            0x11ac48            0x1           1   
.data.uxCriticalNesting   0x11ac4c            0x4           4   
.data.I3C0_DATA           0x11ac50          0x7e8        2024   
.data.I3C1_DATA           0x11b438          0x7e8        2024   
.data.i3c0_device_list    0x11bc20           0x38          56   
.data.I3C0_CFG            0x11bc58           0x20          32   
.data.I3C1_CFG            0x11bc78           0x20          32   
.data.i3c_tgt             0x11bc98           0x20          32   
.data.tgt0_cbs            0x11bcb8           0x18          24   
.data.tx_buff             0x11bcd0           0x14          20   
.data.uxTopUsedPriority   0x11bce4            0x4           4   
         Total RAM used  :      0x3ce4       15588  38.1% of 0xa000
        --------------------------------------------------------------------------
            Total Data Memory used  :      0x3ce4       15588  38.1% of 0xa000
        --------------------------------------------------------------------------


Dynamic Data-Memory Reservation
section                    address  length [bytes]      (dec)  Description
-------                 ----------  -------------------------  -----------
heap                      0x11bcf0          0x200         512  Reserved for heap 
stack                     0x11bf08         0x60f0       24816  Reserved for stack 

        --------------------------------------------------------------------------

Microchip PIC32 Memory-Usage Report By Module

        text        data         bss         dec         hex    basename                        filename
--------------------------------------------------------------------------------
       13652           0         392       14044        36dc    drv_i3c.o                   build/kf_freertos_fpga/production/_ext/101992513/drv_i3c.o
         196           0       10248       10444        28cc    heap_1.o                    build/kf_freertos_fpga/production/_ext/1665200909/heap_1.o
        5226           0           0        5226        146a    plib_i3c_private.o          build/kf_freertos_fpga/production/_ext/825500651/plib_i3c_private.o
        4466           4         260        4730        127a    FreeRTOS_tasks.o            build/kf_freertos_fpga/production/_ext/404212886/FreeRTOS_tasks.o
         342        4200          40        4582        11e6    drv_i3c_config.o            build/kf_freertos_fpga/production/_ext/101992513/drv_i3c_config.o
        3990           0           0        3990         f96    i3c_common.o                build/kf_freertos_fpga/production/_ext/1886205328/i3c_common.o
        3242           0          21        3263         cbf    plib_i3c.o                  build/kf_freertos_fpga/production/_ext/825500651/plib_i3c.o
        2508           0           0        2508         9cc    queue.o                     build/kf_freertos_fpga/production/_ext/404212886/queue.o
        2178           0          12        2190         88e    task1.o                     build/kf_freertos_fpga/production/_ext/1360937237/task1.o
        2048           0         128        2176         880    test_pvt_xfer.o             build/kf_freertos_fpga/production/_ext/1521323865/test_pvt_xfer.o
        1208           0          60        1268         4f4    timers.o                    build/kf_freertos_fpga/production/_ext/404212886/timers.o
        1202           0           0        1202         4b2    uart_perphl.o               build/kf_freertos_fpga/production/_ext/1732944825/uart_perphl.o
        1012           0           0        1012         3f4    i3c_ccc.o                   build/kf_freertos_fpga/production/_ext/1886205328/i3c_ccc.o
         964           0           0         964         3c4    trace.o                     build/kf_freertos_fpga/production/_ext/1420773124/trace.o
         950           0           0         950         3b6    plib_gpio.o                 build/kf_freertos_fpga/production/_ext/179282931/plib_gpio.o
         816          44          22         882         372    tgt_test_pvt_xfer.o         build/kf_freertos_fpga/production/_ext/1521323865/tgt_test_pvt_xfer.o
         862           0           0         862         35e    interrupts.o                build/kf_freertos_fpga/production/_ext/29258880/interrupts.o
         736           0           0         736         2e0    data_init                   data_init
         720           0           0         720         2d0    uart_api.o                  build/kf_freertos_fpga/production/_ext/1732944825/uart_api.o
         672           4           0         676         2a4    port.o                      build/kf_freertos_fpga/production/_ext/246609638/port.o
         452           0          16         468         1d4    task2.o                     build/kf_freertos_fpga/production/_ext/1360937237/task2.o
         452           0           0         452         1c4    osal_freertos.o             build/kf_freertos_fpga/production/_ext/785111490/osal_freertos.o
         316           0           0         316         13c    plib_nvic.o                 build/kf_freertos_fpga/production/_ext/179497222/plib_nvic.o
         304           0           0         304         130    plib_ecia.o                 build/kf_freertos_fpga/production/_ext/179210842/plib_ecia.o
         288           0           0         288         120    list.o                      build/kf_freertos_fpga/production/_ext/404212886/list.o
         198           0          12         210          d2    tasks.o                     build/kf_freertos_fpga/production/_ext/29258880/tasks.o
         146           0           0         146          92    startup_xc32.o              build/kf_freertos_fpga/production/_ext/29258880/startup_xc32.o
         124           0           0         124          7c    plib_pcr.o                  build/kf_freertos_fpga/production/_ext/825492421/plib_pcr.o
         104           0           0         104          68    serial.o                    build/kf_freertos_fpga/production/_ext/1420773124/serial.o
          72           0          28         100          64    crtbegin.o                  c:/program files/microchip/xc32/v4.45/bin/bin/../../lib/gcc/pic32c/8.3.1/thumb/v7e-m+fp/hard/crtbegin.o
          94           0           0          94          5e    __libc_start_main.o         libc-musl.a
          80           0           8          88          58    initialization.o            build/kf_freertos_fpga/production/_ext/29258880/initialization.o
           0           0          80          80          50    libc.o                      libc-musl.a
          76           0           4          80          50    data_init.o                 libpic32c.a
          70           0           0          70          46    pic32_data_init_decompress.olibpic32c.a
          56           0           1          57          39    task3.o                     build/kf_freertos_fpga/production/_ext/1360937237/task3.o
          56           0           0          56          38    freertos_hooks.o            build/kf_freertos_fpga/production/_ext/29258880/freertos_hooks.o
          36           0           0          36          24    exceptions.o                build/kf_freertos_fpga/production/_ext/29258880/exceptions.o
          30           0           0          30          1e    pic32_data_init_copy.o      libpic32c.a
          30           0           0          30          1e    _paritysi2.o                libgcc.a
          28           0           0          28          1c    memcpy.o                    libc-size-musl.a
          20           0           0          20          14    memset.o                    libc-size-musl.a
          18           0           0          18          12    pic32_data_init_clear.o     libpic32c.a
          16           0           0          16          10    main.o                      build/kf_freertos_fpga/production/_ext/1360937237/main.o
          16           0           0          16          10    crtn.o                      c:/program files/microchip/xc32/v4.45/bin/bin/../../lib/gcc/pic32c/8.3.1/thumb/v7e-m+fp/hard/crtn.o
          14           0           0          14           e    plib_ec_reg_bank.o          build/kf_freertos_fpga/production/_ext/868947740/plib_ec_reg_bank.o
           8           0           0           8           8    crti.o                      c:/program files/microchip/xc32/v4.45/bin/bin/../../lib/gcc/pic32c/8.3.1/thumb/v7e-m+fp/hard/crti.o
           0           0           4           4           4    __environ.o                 libc-musl.a
--------------------------------------------------------------------------------
       50094        4252       11336       65682       10092    dist/kf_freertos_fpga/production/kf_freertos_fpga.X.production.elf


Discarded input sections

 .text          0x0000000000000000        0x0 c:/program files/microchip/xc32/v4.45/bin/bin/../../lib/gcc/pic32c/8.3.1/thumb/v7e-m+fp/hard/crti.o
 .data          0x0000000000000000        0x0 c:/program files/microchip/xc32/v4.45/bin/bin/../../lib/gcc/pic32c/8.3.1/thumb/v7e-m+fp/hard/crti.o
 .bss           0x0000000000000000        0x0 c:/program files/microchip/xc32/v4.45/bin/bin/../../lib/gcc/pic32c/8.3.1/thumb/v7e-m+fp/hard/crti.o
 .xc_stack_usage.hdr
                0x0000000000000000        0xe c:/program files/microchip/xc32/v4.45/bin/bin/../../lib/gcc/pic32c/8.3.1/thumb/v7e-m+fp/hard/crti.o
 .xc_stack_usage
                0x0000000000000000       0x26 c:/program files/microchip/xc32/v4.45/bin/bin/../../lib/gcc/pic32c/8.3.1/thumb/v7e-m+fp/hard/crti.o
 .data          0x0000000000000000        0x4 c:/program files/microchip/xc32/v4.45/bin/bin/../../lib/gcc/pic32c/8.3.1/thumb/v7e-m+fp/hard/crtbegin.o
 .xc_stack_usage
                0x0000000000000000       0x3c c:/program files/microchip/xc32/v4.45/bin/bin/../../lib/gcc/pic32c/8.3.1/thumb/v7e-m+fp/hard/crtbegin.o
 .xc_stack_usage.hdr
                0x0000000000000000        0xe c:/program files/microchip/xc32/v4.45/bin/bin/../../lib/gcc/pic32c/8.3.1/thumb/v7e-m+fp/hard/crtbegin.o
 .text          0x0000000000000000        0x0 build/kf_freertos_fpga/production/_ext/1420773124/serial.o
 .data          0x0000000000000000        0x0 build/kf_freertos_fpga/production/_ext/1420773124/serial.o
 .bss           0x0000000000000000        0x0 build/kf_freertos_fpga/production/_ext/1420773124/serial.o
 .text          0x0000000000000000        0x0 build/kf_freertos_fpga/production/_ext/1420773124/trace.o
 .data          0x0000000000000000        0x0 build/kf_freertos_fpga/production/_ext/1420773124/trace.o
 .bss           0x0000000000000000        0x0 build/kf_freertos_fpga/production/_ext/1420773124/trace.o
 .text          0x0000000000000000        0x0 build/kf_freertos_fpga/production/_ext/101992513/drv_i3c.o
 .data          0x0000000000000000        0x0 build/kf_freertos_fpga/production/_ext/101992513/drv_i3c.o
 .bss           0x0000000000000000        0x0 build/kf_freertos_fpga/production/_ext/101992513/drv_i3c.o
 .bss.target_tx_data_buf
                0x0000000000000000       0x80 build/kf_freertos_fpga/production/_ext/101992513/drv_i3c.o
 .text._drv_i3c_dma_in_use_tgt_rx_node_get_isr
                0x0000000000000000       0x5c build/kf_freertos_fpga/production/_ext/101992513/drv_i3c.o
 .text._get_pid_from_pid_array
                0x0000000000000000       0xe4 build/kf_freertos_fpga/production/_ext/101992513/drv_i3c.o
 .text          0x0000000000000000        0x0 build/kf_freertos_fpga/production/_ext/101992513/drv_i3c_config.o
 .data          0x0000000000000000        0x0 build/kf_freertos_fpga/production/_ext/101992513/drv_i3c_config.o
 .bss           0x0000000000000000        0x0 build/kf_freertos_fpga/production/_ext/101992513/drv_i3c_config.o
 .data.i3c1_device_list
                0x0000000000000000       0xe0 build/kf_freertos_fpga/production/_ext/101992513/drv_i3c_config.o
 .data.I3C1_HOST_CFG
                0x0000000000000000       0x20 build/kf_freertos_fpga/production/_ext/101992513/drv_i3c_config.o
 .data.I3C1_HOST_DATA
                0x0000000000000000      0x7e8 build/kf_freertos_fpga/production/_ext/101992513/drv_i3c_config.o
 .text.DRV_I3C1_as_host_Initialize
                0x0000000000000000       0x3c build/kf_freertos_fpga/production/_ext/101992513/drv_i3c_config.o
 .text          0x0000000000000000        0x0 build/kf_freertos_fpga/production/_ext/1886205328/i3c_ccc.o
 .data          0x0000000000000000        0x0 build/kf_freertos_fpga/production/_ext/1886205328/i3c_ccc.o
 .bss           0x0000000000000000        0x0 build/kf_freertos_fpga/production/_ext/1886205328/i3c_ccc.o
 .text.i3c_ccc_do_getpid
                0x0000000000000000       0x56 build/kf_freertos_fpga/production/_ext/1886205328/i3c_ccc.o
 .text.i3c_ccc_do_setnewda
                0x0000000000000000       0xa0 build/kf_freertos_fpga/production/_ext/1886205328/i3c_ccc.o
 .text.i3c_ccc_do_setmwl_all
                0x0000000000000000       0x54 build/kf_freertos_fpga/production/_ext/1886205328/i3c_ccc.o
 .text.i3c_ccc_do_setmwl
                0x0000000000000000       0x7e build/kf_freertos_fpga/production/_ext/1886205328/i3c_ccc.o
 .text.i3c_ccc_do_setmrl_all
                0x0000000000000000       0x6e build/kf_freertos_fpga/production/_ext/1886205328/i3c_ccc.o
 .text.i3c_ccc_do_setmrl
                0x0000000000000000       0x88 build/kf_freertos_fpga/production/_ext/1886205328/i3c_ccc.o
 .text.i3c_ccc_do_getstatus
                0x0000000000000000       0xfa build/kf_freertos_fpga/production/_ext/1886205328/i3c_ccc.o
 .text.i3c_ccc_do_enttm_all
                0x0000000000000000       0x42 build/kf_freertos_fpga/production/_ext/1886205328/i3c_ccc.o
 .text.i3c_ccc_do_enthdr_all
                0x0000000000000000       0x38 build/kf_freertos_fpga/production/_ext/1886205328/i3c_ccc.o
 .text.i3c_ccc_do_setxtime_all
                0x0000000000000000       0x62 build/kf_freertos_fpga/production/_ext/1886205328/i3c_ccc.o
 .text.i3c_ccc_do_setxtime
                0x0000000000000000       0x80 build/kf_freertos_fpga/production/_ext/1886205328/i3c_ccc.o
 .text.i3c_ccc_do_getxtime
                0x0000000000000000       0x5e build/kf_freertos_fpga/production/_ext/1886205328/i3c_ccc.o
 .text          0x0000000000000000        0x0 build/kf_freertos_fpga/production/_ext/1886205328/i3c_common.o
 .data          0x0000000000000000        0x0 build/kf_freertos_fpga/production/_ext/1886205328/i3c_common.o
 .bss           0x0000000000000000        0x0 build/kf_freertos_fpga/production/_ext/1886205328/i3c_common.o
 .text.i3c_dump_msgs
                0x0000000000000000       0xa8 build/kf_freertos_fpga/production/_ext/1886205328/i3c_common.o
 .text.i3c_dev_list_i2c_addr_find
                0x0000000000000000       0x4a build/kf_freertos_fpga/production/_ext/1886205328/i3c_common.o
 .text.i3c_detach_i2c_device
                0x0000000000000000       0x8e build/kf_freertos_fpga/production/_ext/1886205328/i3c_common.o
 .text.i3c_dev_list_daa_addr_helper
                0x0000000000000000      0x130 build/kf_freertos_fpga/production/_ext/1886205328/i3c_common.o
 .text          0x0000000000000000        0x0 build/kf_freertos_fpga/production/_ext/785111490/osal_freertos.o
 .data          0x0000000000000000        0x0 build/kf_freertos_fpga/production/_ext/785111490/osal_freertos.o
 .bss           0x0000000000000000        0x0 build/kf_freertos_fpga/production/_ext/785111490/osal_freertos.o
 .text.OSAL_SEM_Delete
                0x0000000000000000       0x22 build/kf_freertos_fpga/production/_ext/785111490/osal_freertos.o
 .text.OSAL_SEM_GetCount
                0x0000000000000000       0x2a build/kf_freertos_fpga/production/_ext/785111490/osal_freertos.o
 .text.OSAL_MUTEX_Create
                0x0000000000000000       0x2a build/kf_freertos_fpga/production/_ext/785111490/osal_freertos.o
 .text.OSAL_MUTEX_Delete
                0x0000000000000000       0x2e build/kf_freertos_fpga/production/_ext/785111490/osal_freertos.o
 .text.OSAL_MUTEX_Lock
                0x0000000000000000       0x54 build/kf_freertos_fpga/production/_ext/785111490/osal_freertos.o
 .text.OSAL_MUTEX_Unlock
                0x0000000000000000       0x2a build/kf_freertos_fpga/production/_ext/785111490/osal_freertos.o
 .text.OSAL_Malloc
                0x0000000000000000       0x18 build/kf_freertos_fpga/production/_ext/785111490/osal_freertos.o
 .text.OSAL_Free
                0x0000000000000000       0x16 build/kf_freertos_fpga/production/_ext/785111490/osal_freertos.o
 .text.OSAL_Initialize
                0x0000000000000000       0x10 build/kf_freertos_fpga/production/_ext/785111490/osal_freertos.o
 .text          0x0000000000000000        0x0 build/kf_freertos_fpga/production/_ext/825503660/dma.o
 .data          0x0000000000000000        0x0 build/kf_freertos_fpga/production/_ext/825503660/dma.o
 .bss           0x0000000000000000        0x0 build/kf_freertos_fpga/production/_ext/825503660/dma.o
 .text.dma_main_enable
                0x0000000000000000       0x24 build/kf_freertos_fpga/production/_ext/825503660/dma.o
 .text.dma_main_disable
                0x0000000000000000       0x24 build/kf_freertos_fpga/production/_ext/825503660/dma.o
 .text.dma_activate
                0x0000000000000000       0x24 build/kf_freertos_fpga/production/_ext/825503660/dma.o
 .text.dma_deactivate
                0x0000000000000000       0x24 build/kf_freertos_fpga/production/_ext/825503660/dma.o
 .text.dma_stop
                0x0000000000000000       0x20 build/kf_freertos_fpga/production/_ext/825503660/dma.o
 .text.dma_start
                0x0000000000000000       0x20 build/kf_freertos_fpga/production/_ext/825503660/dma.o
 .rodata        0x0000000000000000       0x60 build/kf_freertos_fpga/production/_ext/825503660/dma.o
 .text.dma_setup_tx
                0x0000000000000000       0xb4 build/kf_freertos_fpga/production/_ext/825503660/dma.o
 .text.dma_setup_rx
                0x0000000000000000       0xac build/kf_freertos_fpga/production/_ext/825503660/dma.o
 .text.dma_switch_tx_to_rx
                0x0000000000000000       0x74 build/kf_freertos_fpga/production/_ext/825503660/dma.o
 .text.dma_get_device_id
                0x0000000000000000       0xb8 build/kf_freertos_fpga/production/_ext/825503660/dma.o
 .text.dma_wait_till_free
                0x0000000000000000       0x54 build/kf_freertos_fpga/production/_ext/825503660/dma.o
 .text.dma_enable_interrupt
                0x0000000000000000       0x20 build/kf_freertos_fpga/production/_ext/825503660/dma.o
 .text.dma_disable_interrupt
                0x0000000000000000       0x20 build/kf_freertos_fpga/production/_ext/825503660/dma.o
 .rodata.__FUNCTION__.8912
                0x0000000000000000       0x10 build/kf_freertos_fpga/production/_ext/825503660/dma.o
 .rodata.__FUNCTION__.8924
                0x0000000000000000       0x10 build/kf_freertos_fpga/production/_ext/825503660/dma.o
 .rodata.__FUNCTION__.8930
                0x0000000000000000       0x14 build/kf_freertos_fpga/production/_ext/825503660/dma.o
 .rodata.__FUNCTION__.8936
                0x0000000000000000       0x14 build/kf_freertos_fpga/production/_ext/825503660/dma.o
 .rodata.__FUNCTION__.8950
                0x0000000000000000       0x14 build/kf_freertos_fpga/production/_ext/825503660/dma.o
 .debug_info    0x0000000000000000      0x734 build/kf_freertos_fpga/production/_ext/825503660/dma.o
 .debug_abbrev  0x0000000000000000      0x1fa build/kf_freertos_fpga/production/_ext/825503660/dma.o
 .debug_loc     0x0000000000000000      0x470 build/kf_freertos_fpga/production/_ext/825503660/dma.o
 .debug_aranges
                0x0000000000000000       0x80 build/kf_freertos_fpga/production/_ext/825503660/dma.o
 .debug_ranges  0x0000000000000000       0x70 build/kf_freertos_fpga/production/_ext/825503660/dma.o
 .debug_line    0x0000000000000000      0x2c8 build/kf_freertos_fpga/production/_ext/825503660/dma.o
 .debug_str     0x0000000000000000      0x824 build/kf_freertos_fpga/production/_ext/825503660/dma.o
 .comment       0x0000000000000000       0x2c build/kf_freertos_fpga/production/_ext/825503660/dma.o
 .debug_frame   0x0000000000000000      0x204 build/kf_freertos_fpga/production/_ext/825503660/dma.o
 .ARM.attributes
                0x0000000000000000       0x34 build/kf_freertos_fpga/production/_ext/825503660/dma.o
 .text          0x0000000000000000        0x0 build/kf_freertos_fpga/production/_ext/868947740/plib_ec_reg_bank.o
 .data          0x0000000000000000        0x0 build/kf_freertos_fpga/production/_ext/868947740/plib_ec_reg_bank.o
 .bss           0x0000000000000000        0x0 build/kf_freertos_fpga/production/_ext/868947740/plib_ec_reg_bank.o
 .text.EC_REG_BANK_AHBErrorAddrGet
                0x0000000000000000       0x18 build/kf_freertos_fpga/production/_ext/868947740/plib_ec_reg_bank.o
 .text.EC_REG_BANK_AHBErrorAddrClr
                0x0000000000000000       0x18 build/kf_freertos_fpga/production/_ext/868947740/plib_ec_reg_bank.o
 .text.EC_REG_BANK_AHBErrorEnable
                0x0000000000000000       0x18 build/kf_freertos_fpga/production/_ext/868947740/plib_ec_reg_bank.o
 .text.EC_REG_BANK_AHBErrorDisable
                0x0000000000000000       0x18 build/kf_freertos_fpga/production/_ext/868947740/plib_ec_reg_bank.o
 .text.EC_REG_BANK_AltNVICVectorsEnable
                0x0000000000000000       0x18 build/kf_freertos_fpga/production/_ext/868947740/plib_ec_reg_bank.o
 .text.EC_REG_BANK_VTR1PadMonDebounceCtrl
                0x0000000000000000       0x16 build/kf_freertos_fpga/production/_ext/868947740/plib_ec_reg_bank.o
 .text.EC_REG_BANK_VTR1PadMonOverrideEn
                0x0000000000000000        0xe build/kf_freertos_fpga/production/_ext/868947740/plib_ec_reg_bank.o
 .text.EC_REG_BANK_VTR1PadMonOverrideDis
                0x0000000000000000        0xe build/kf_freertos_fpga/production/_ext/868947740/plib_ec_reg_bank.o
 .text.EC_REG_BANK_VTR1PadMonOverrideInpDis
                0x0000000000000000        0xe build/kf_freertos_fpga/production/_ext/868947740/plib_ec_reg_bank.o
 .text.EC_REG_BANK_VTR1PadMonOverrideInpEn
                0x0000000000000000        0xe build/kf_freertos_fpga/production/_ext/868947740/plib_ec_reg_bank.o
 .text.EC_REG_BANK_VTR1PadMonOverrideProtEn
                0x0000000000000000        0xe build/kf_freertos_fpga/production/_ext/868947740/plib_ec_reg_bank.o
 .text.EC_REG_BANK_VTR1PadMonOverrideProtDis
                0x0000000000000000        0xe build/kf_freertos_fpga/production/_ext/868947740/plib_ec_reg_bank.o
 .text.EC_REG_BANK_VTR1PadMonPUIntEn
                0x0000000000000000        0xe build/kf_freertos_fpga/production/_ext/868947740/plib_ec_reg_bank.o
 .text.EC_REG_BANK_VTR1PadMonPUIntDis
                0x0000000000000000        0xe build/kf_freertos_fpga/production/_ext/868947740/plib_ec_reg_bank.o
 .text.EC_REG_BANK_VTR1PadMonPDIntEn
                0x0000000000000000        0xe build/kf_freertos_fpga/production/_ext/868947740/plib_ec_reg_bank.o
 .text.EC_REG_BANK_VTR1PadMonPDIntDis
                0x0000000000000000        0xe build/kf_freertos_fpga/production/_ext/868947740/plib_ec_reg_bank.o
 .text.EC_REG_BANK_VTR2PadMonDebounceCtrl
                0x0000000000000000       0x16 build/kf_freertos_fpga/production/_ext/868947740/plib_ec_reg_bank.o
 .text.EC_REG_BANK_VTR2PadMonOverrideEn
                0x0000000000000000        0xe build/kf_freertos_fpga/production/_ext/868947740/plib_ec_reg_bank.o
 .text.EC_REG_BANK_VTR2PadMonOverrideDis
                0x0000000000000000        0xe build/kf_freertos_fpga/production/_ext/868947740/plib_ec_reg_bank.o
 .text.EC_REG_BANK_VTR2PadMonOverrideInpDis
                0x0000000000000000        0xe build/kf_freertos_fpga/production/_ext/868947740/plib_ec_reg_bank.o
 .text.EC_REG_BANK_VTR2PadMonOverrideInpEn
                0x0000000000000000        0xe build/kf_freertos_fpga/production/_ext/868947740/plib_ec_reg_bank.o
 .text.EC_REG_BANK_VTR2PadMonOverrideProtEn
                0x0000000000000000        0xe build/kf_freertos_fpga/production/_ext/868947740/plib_ec_reg_bank.o
 .text.EC_REG_BANK_VTR2PadMonOverrideProtDis
                0x0000000000000000        0xe build/kf_freertos_fpga/production/_ext/868947740/plib_ec_reg_bank.o
 .text.EC_REG_BANK_VTR2PadMonPUIntEn
                0x0000000000000000        0xe build/kf_freertos_fpga/production/_ext/868947740/plib_ec_reg_bank.o
 .text.EC_REG_BANK_VTR2PadMonPUIntDis
                0x0000000000000000        0xe build/kf_freertos_fpga/production/_ext/868947740/plib_ec_reg_bank.o
 .text.EC_REG_BANK_VTR2PadMonPDIntEn
                0x0000000000000000        0xe build/kf_freertos_fpga/production/_ext/868947740/plib_ec_reg_bank.o
 .text.EC_REG_BANK_VTR2PadMonPDIntDis
                0x0000000000000000        0xe build/kf_freertos_fpga/production/_ext/868947740/plib_ec_reg_bank.o
 .text.EC_REG_BANK_VTR1PadMonStatusGet
                0x0000000000000000       0x10 build/kf_freertos_fpga/production/_ext/868947740/plib_ec_reg_bank.o
 .text.EC_REG_BANK_VTR1PadMonStatusClr
                0x0000000000000000       0x16 build/kf_freertos_fpga/production/_ext/868947740/plib_ec_reg_bank.o
 .text.EC_REG_BANK_VTR2PadMonStatusGet
                0x0000000000000000       0x10 build/kf_freertos_fpga/production/_ext/868947740/plib_ec_reg_bank.o
 .text.EC_REG_BANK_VTR2PadMonStatusClr
                0x0000000000000000       0x16 build/kf_freertos_fpga/production/_ext/868947740/plib_ec_reg_bank.o
 .text          0x0000000000000000        0x0 build/kf_freertos_fpga/production/_ext/179210842/plib_ecia.o
 .data          0x0000000000000000        0x0 build/kf_freertos_fpga/production/_ext/179210842/plib_ecia.o
 .bss           0x0000000000000000        0x0 build/kf_freertos_fpga/production/_ext/179210842/plib_ecia.o
 .text.__NVIC_EnableIRQ
                0x0000000000000000       0x3c build/kf_freertos_fpga/production/_ext/179210842/plib_ecia.o
 .text.ECIA_GIRQBlockDisable
                0x0000000000000000       0x28 build/kf_freertos_fpga/production/_ext/179210842/plib_ecia.o
 .text.ECIA_GIRQBlockDisableAll
                0x0000000000000000       0x1c build/kf_freertos_fpga/production/_ext/179210842/plib_ecia.o
 .text.ECIA_GIRQBlockStatusGet
                0x0000000000000000       0x2c build/kf_freertos_fpga/production/_ext/179210842/plib_ecia.o
 .text.ECIA_GIRQSourceDisable
                0x0000000000000000       0x44 build/kf_freertos_fpga/production/_ext/179210842/plib_ecia.o
 .text.ECIA_GIRQIsInterruptEnabled
                0x0000000000000000       0x50 build/kf_freertos_fpga/production/_ext/179210842/plib_ecia.o
 .text.ECIA_GIRQSourceClearAll
                0x0000000000000000       0x3c build/kf_freertos_fpga/production/_ext/179210842/plib_ecia.o
 .text.ECIA_GIRQSourceDisableAll
                0x0000000000000000       0x3c build/kf_freertos_fpga/production/_ext/179210842/plib_ecia.o
 .text.ECIA_InterruptEnable
                0x0000000000000000       0x50 build/kf_freertos_fpga/production/_ext/179210842/plib_ecia.o
 .text.ECIA_InterruptDisable
                0x0000000000000000       0x16 build/kf_freertos_fpga/production/_ext/179210842/plib_ecia.o
 .text          0x0000000000000000        0x0 build/kf_freertos_fpga/production/_ext/179282931/plib_gpio.o
 .data          0x0000000000000000        0x0 build/kf_freertos_fpga/production/_ext/179282931/plib_gpio.o
 .bss           0x0000000000000000        0x0 build/kf_freertos_fpga/production/_ext/179282931/plib_gpio.o
 .text.GPIO_PinOutputEnable
                0x0000000000000000       0x30 build/kf_freertos_fpga/production/_ext/179282931/plib_gpio.o
 .text.GPIO_PinInputEnable
                0x0000000000000000       0x30 build/kf_freertos_fpga/production/_ext/179282931/plib_gpio.o
 .text.GPIO_PinInputDisable
                0x0000000000000000       0x30 build/kf_freertos_fpga/production/_ext/179282931/plib_gpio.o
 .text.GPIO_PinGroupOutputEnable
                0x0000000000000000       0x30 build/kf_freertos_fpga/production/_ext/179282931/plib_gpio.o
 .text.GPIO_PinGroupOutputDisable
                0x0000000000000000       0x30 build/kf_freertos_fpga/production/_ext/179282931/plib_gpio.o
 .text.GPIO_PinSet
                0x0000000000000000       0x30 build/kf_freertos_fpga/production/_ext/179282931/plib_gpio.o
 .text.GPIO_PinClear
                0x0000000000000000       0x30 build/kf_freertos_fpga/production/_ext/179282931/plib_gpio.o
 .text.GPIO_PinToggle
                0x0000000000000000       0x30 build/kf_freertos_fpga/production/_ext/179282931/plib_gpio.o
 .text.GPIO_PinRead
                0x0000000000000000       0x36 build/kf_freertos_fpga/production/_ext/179282931/plib_gpio.o
 .text.GPIO_PinWrite
                0x0000000000000000       0x3c build/kf_freertos_fpga/production/_ext/179282931/plib_gpio.o
 .text.GPIO_PinLatchRead
                0x0000000000000000       0x36 build/kf_freertos_fpga/production/_ext/179282931/plib_gpio.o
 .text.GPIO_GroupSet
                0x0000000000000000       0x34 build/kf_freertos_fpga/production/_ext/179282931/plib_gpio.o
 .text.GPIO_GroupClear
                0x0000000000000000       0x38 build/kf_freertos_fpga/production/_ext/179282931/plib_gpio.o
 .text.GPIO_GroupToggle
                0x0000000000000000       0x34 build/kf_freertos_fpga/production/_ext/179282931/plib_gpio.o
 .text.GPIO_GroupRead
                0x0000000000000000       0x2c build/kf_freertos_fpga/production/_ext/179282931/plib_gpio.o
 .text.GPIO_GroupPinSet
                0x0000000000000000       0x4c build/kf_freertos_fpga/production/_ext/179282931/plib_gpio.o
 .text.GPIO_GroupPinClear
                0x0000000000000000       0x4c build/kf_freertos_fpga/production/_ext/179282931/plib_gpio.o
 .text.GPIO_GroupPinToggle
                0x0000000000000000       0x4c build/kf_freertos_fpga/production/_ext/179282931/plib_gpio.o
 .text.GPIO_GroupPinRead
                0x0000000000000000       0x40 build/kf_freertos_fpga/production/_ext/179282931/plib_gpio.o
 .text.GPIO_PinSlewRateConfig
                0x0000000000000000       0x3c build/kf_freertos_fpga/production/_ext/179282931/plib_gpio.o
 .text.GPIO_DrvStrConfig
                0x0000000000000000       0x3c build/kf_freertos_fpga/production/_ext/179282931/plib_gpio.o
 .text          0x0000000000000000        0x0 build/kf_freertos_fpga/production/_ext/825500651/plib_i3c.o
 .data          0x0000000000000000        0x0 build/kf_freertos_fpga/production/_ext/825500651/plib_i3c.o
 .bss           0x0000000000000000        0x0 build/kf_freertos_fpga/production/_ext/825500651/plib_i3c.o
 .text.I3C_Target_MRL_MWL_set
                0x0000000000000000       0x24 build/kf_freertos_fpga/production/_ext/825500651/plib_i3c.o
 .text.I3C_TGT_MXDS_set
                0x0000000000000000       0x34 build/kf_freertos_fpga/production/_ext/825500651/plib_i3c.o
 .text          0x0000000000000000        0x0 build/kf_freertos_fpga/production/_ext/825500651/plib_i3c_private.o
 .data          0x0000000000000000        0x0 build/kf_freertos_fpga/production/_ext/825500651/plib_i3c_private.o
 .bss           0x0000000000000000        0x0 build/kf_freertos_fpga/production/_ext/825500651/plib_i3c_private.o
 .text._i3c_intr_thresholds_tx_enable
                0x0000000000000000       0x2c build/kf_freertos_fpga/production/_ext/825500651/plib_i3c_private.o
 .text._i3c_intr_thresholds_tx_disable
                0x0000000000000000       0x2c build/kf_freertos_fpga/production/_ext/825500651/plib_i3c_private.o
 .text._i3c_intr_thresholds_rx_enable
                0x0000000000000000       0x2c build/kf_freertos_fpga/production/_ext/825500651/plib_i3c_private.o
 .text._i3c_intr_thresholds_rx_disable
                0x0000000000000000       0x2c build/kf_freertos_fpga/production/_ext/825500651/plib_i3c_private.o
 .text._i3c_slave_symbl_timing_set
                0x0000000000000000       0x24 build/kf_freertos_fpga/production/_ext/825500651/plib_i3c_private.o
 .text._i3c_hot_join_enable
                0x0000000000000000       0x2c build/kf_freertos_fpga/production/_ext/825500651/plib_i3c_private.o
 .text._i2c_slave_present_reset
                0x0000000000000000       0x20 build/kf_freertos_fpga/production/_ext/825500651/plib_i3c_private.o
 .text._i3c_sec_host_dma_fsm_enable
                0x0000000000000000       0x2c build/kf_freertos_fpga/production/_ext/825500651/plib_i3c_private.o
 .text._i3c_tgt_mrl_set
                0x0000000000000000       0x28 build/kf_freertos_fpga/production/_ext/825500651/plib_i3c_private.o
 .text._i3c_tgt_mwl_set
                0x0000000000000000       0x28 build/kf_freertos_fpga/production/_ext/825500651/plib_i3c_private.o
 .text._i3c_tgt_mxds_set
                0x0000000000000000       0x48 build/kf_freertos_fpga/production/_ext/825500651/plib_i3c_private.o
 .text._i3c_tgt_MRL_MWL_set
                0x0000000000000000       0x2a build/kf_freertos_fpga/production/_ext/825500651/plib_i3c_private.o
 .text._i3c_tgt_MWL_set
                0x0000000000000000       0x20 build/kf_freertos_fpga/production/_ext/825500651/plib_i3c_private.o
 .text          0x0000000000000000        0x0 build/kf_freertos_fpga/production/_ext/179497222/plib_nvic.o
 .data          0x0000000000000000        0x0 build/kf_freertos_fpga/production/_ext/179497222/plib_nvic.o
 .bss           0x0000000000000000        0x0 build/kf_freertos_fpga/production/_ext/179497222/plib_nvic.o
 .text.NVIC_INT_Enable
                0x0000000000000000       0x14 build/kf_freertos_fpga/production/_ext/179497222/plib_nvic.o
 .text.NVIC_INT_Disable
                0x0000000000000000       0x2c build/kf_freertos_fpga/production/_ext/179497222/plib_nvic.o
 .text.NVIC_INT_Restore
                0x0000000000000000       0x2a build/kf_freertos_fpga/production/_ext/179497222/plib_nvic.o
 .text          0x0000000000000000        0x0 build/kf_freertos_fpga/production/_ext/825492421/plib_pcr.o
 .data          0x0000000000000000        0x0 build/kf_freertos_fpga/production/_ext/825492421/plib_pcr.o
 .bss           0x0000000000000000        0x0 build/kf_freertos_fpga/production/_ext/825492421/plib_pcr.o
 .text.PCR_PeripheralResetLock
                0x0000000000000000       0x20 build/kf_freertos_fpga/production/_ext/825492421/plib_pcr.o
 .text.PCR_PeripheralResetUnLock
                0x0000000000000000       0x20 build/kf_freertos_fpga/production/_ext/825492421/plib_pcr.o
 .text.PCR_PrivilegeEnLock
                0x0000000000000000       0x20 build/kf_freertos_fpga/production/_ext/825492421/plib_pcr.o
 .text.PCR_PrivilegeEnUnLock
                0x0000000000000000       0x20 build/kf_freertos_fpga/production/_ext/825492421/plib_pcr.o
 .text.PCR_PowerFailResetStatusRegGet
                0x0000000000000000       0x18 build/kf_freertos_fpga/production/_ext/825492421/plib_pcr.o
 .text.PCR_PowerFailResetStatusClear
                0x0000000000000000       0x20 build/kf_freertos_fpga/production/_ext/825492421/plib_pcr.o
 .text.PCR_SleepEnable0
                0x0000000000000000       0x2c build/kf_freertos_fpga/production/_ext/825492421/plib_pcr.o
 .text.PCR_SleepDisable0
                0x0000000000000000       0x2c build/kf_freertos_fpga/production/_ext/825492421/plib_pcr.o
 .text.PCR_SleepEnable1
                0x0000000000000000       0x30 build/kf_freertos_fpga/production/_ext/825492421/plib_pcr.o
 .text.PCR_SleepDisable1
                0x0000000000000000       0x34 build/kf_freertos_fpga/production/_ext/825492421/plib_pcr.o
 .text.PCR_SleepEnable3
                0x0000000000000000       0x30 build/kf_freertos_fpga/production/_ext/825492421/plib_pcr.o
 .text.PCR_SleepDisable3
                0x0000000000000000       0x34 build/kf_freertos_fpga/production/_ext/825492421/plib_pcr.o
 .text.PCR_SleepEnable4
                0x0000000000000000       0x30 build/kf_freertos_fpga/production/_ext/825492421/plib_pcr.o
 .text.PCR_SleepDisable4
                0x0000000000000000       0x34 build/kf_freertos_fpga/production/_ext/825492421/plib_pcr.o
 .text.PCR_PrivilegeEnable0
                0x0000000000000000       0x34 build/kf_freertos_fpga/production/_ext/825492421/plib_pcr.o
 .text.PCR_PrivilegeDisable0
                0x0000000000000000       0x34 build/kf_freertos_fpga/production/_ext/825492421/plib_pcr.o
 .text.PCR_PrivilegeEnable1
                0x0000000000000000       0x34 build/kf_freertos_fpga/production/_ext/825492421/plib_pcr.o
 .text.PCR_PrivilegeDisable1
                0x0000000000000000       0x38 build/kf_freertos_fpga/production/_ext/825492421/plib_pcr.o
 .text.PCR_PrivilegeEnable3
                0x0000000000000000       0x34 build/kf_freertos_fpga/production/_ext/825492421/plib_pcr.o
 .text.PCR_PrivilegeDisable3
                0x0000000000000000       0x38 build/kf_freertos_fpga/production/_ext/825492421/plib_pcr.o
 .text.PCR_PrivilegeEnable4
                0x0000000000000000       0x34 build/kf_freertos_fpga/production/_ext/825492421/plib_pcr.o
 .text.PCR_PrivilegeDisable4
                0x0000000000000000       0x38 build/kf_freertos_fpga/production/_ext/825492421/plib_pcr.o
 .text.PCR_ResetEnable0
                0x0000000000000000       0x30 build/kf_freertos_fpga/production/_ext/825492421/plib_pcr.o
 .text.PCR_ResetEnable1
                0x0000000000000000       0x30 build/kf_freertos_fpga/production/_ext/825492421/plib_pcr.o
 .text.PCR_ResetEnable3
                0x0000000000000000       0x30 build/kf_freertos_fpga/production/_ext/825492421/plib_pcr.o
 .text.PCR_ResetEnable4
                0x0000000000000000       0x34 build/kf_freertos_fpga/production/_ext/825492421/plib_pcr.o
 .text          0x0000000000000000        0x0 build/kf_freertos_fpga/production/_ext/1732944825/uart_api.o
 .data          0x0000000000000000        0x0 build/kf_freertos_fpga/production/_ext/1732944825/uart_api.o
 .bss           0x0000000000000000        0x0 build/kf_freertos_fpga/production/_ext/1732944825/uart_api.o
 .text.uart_receive
                0x0000000000000000       0x1c build/kf_freertos_fpga/production/_ext/1732944825/uart_api.o
 .text          0x0000000000000000        0x0 build/kf_freertos_fpga/production/_ext/1732944825/uart_perphl.o
 .data          0x0000000000000000        0x0 build/kf_freertos_fpga/production/_ext/1732944825/uart_perphl.o
 .bss           0x0000000000000000        0x0 build/kf_freertos_fpga/production/_ext/1732944825/uart_perphl.o
 .text.p_uart_config_sel_reg_get
                0x0000000000000000       0x32 build/kf_freertos_fpga/production/_ext/1732944825/uart_perphl.o
 .text.p_uart_rx_buff_read
                0x0000000000000000       0x48 build/kf_freertos_fpga/production/_ext/1732944825/uart_perphl.o
 .text.p_uart_iir_reg_get
                0x0000000000000000       0x34 build/kf_freertos_fpga/production/_ext/1732944825/uart_perphl.o
 .text.p_uart_break_control_set
                0x0000000000000000       0x50 build/kf_freertos_fpga/production/_ext/1732944825/uart_perphl.o
 .text.p_uart_modem_control_reg_set
                0x0000000000000000      0x13c build/kf_freertos_fpga/production/_ext/1732944825/uart_perphl.o
 .text.p_uart_modem_control_reg_get
                0x0000000000000000       0x34 build/kf_freertos_fpga/production/_ext/1732944825/uart_perphl.o
 .text.p_uart_modem_status_reg_get
                0x0000000000000000      0x140 build/kf_freertos_fpga/production/_ext/1732944825/uart_perphl.o
 .text.p_uart_scratchpad_write
                0x0000000000000000       0x2e build/kf_freertos_fpga/production/_ext/1732944825/uart_perphl.o
 .text.p_uart_scratchpad_read
                0x0000000000000000       0x34 build/kf_freertos_fpga/production/_ext/1732944825/uart_perphl.o
 .text          0x0000000000000000        0x0 build/kf_freertos_fpga/production/_ext/1435074362/xc32_monitor.o
 .data          0x0000000000000000        0x0 build/kf_freertos_fpga/production/_ext/1435074362/xc32_monitor.o
 .bss           0x0000000000000000        0x0 build/kf_freertos_fpga/production/_ext/1435074362/xc32_monitor.o
 .text.read     0x0000000000000000       0x1c build/kf_freertos_fpga/production/_ext/1435074362/xc32_monitor.o
 .text.write    0x0000000000000000       0x1c build/kf_freertos_fpga/production/_ext/1435074362/xc32_monitor.o
 .debug_info    0x0000000000000000       0xf1 build/kf_freertos_fpga/production/_ext/1435074362/xc32_monitor.o
 .debug_abbrev  0x0000000000000000       0x9e build/kf_freertos_fpga/production/_ext/1435074362/xc32_monitor.o
 .debug_loc     0x0000000000000000       0xb8 build/kf_freertos_fpga/production/_ext/1435074362/xc32_monitor.o
 .debug_aranges
                0x0000000000000000       0x28 build/kf_freertos_fpga/production/_ext/1435074362/xc32_monitor.o
 .debug_ranges  0x0000000000000000       0x18 build/kf_freertos_fpga/production/_ext/1435074362/xc32_monitor.o
 .debug_line    0x0000000000000000       0xcf build/kf_freertos_fpga/production/_ext/1435074362/xc32_monitor.o
 .debug_str     0x0000000000000000      0x218 build/kf_freertos_fpga/production/_ext/1435074362/xc32_monitor.o
 .comment       0x0000000000000000       0x2c build/kf_freertos_fpga/production/_ext/1435074362/xc32_monitor.o
 .debug_frame   0x0000000000000000       0x60 build/kf_freertos_fpga/production/_ext/1435074362/xc32_monitor.o
 .ARM.attributes
                0x0000000000000000       0x34 build/kf_freertos_fpga/production/_ext/1435074362/xc32_monitor.o
 .text          0x0000000000000000        0x0 build/kf_freertos_fpga/production/_ext/29258880/exceptions.o
 .data          0x0000000000000000        0x0 build/kf_freertos_fpga/production/_ext/29258880/exceptions.o
 .bss           0x0000000000000000        0x0 build/kf_freertos_fpga/production/_ext/29258880/exceptions.o
 .text          0x0000000000000000        0x0 build/kf_freertos_fpga/production/_ext/29258880/freertos_hooks.o
 .data          0x0000000000000000        0x0 build/kf_freertos_fpga/production/_ext/29258880/freertos_hooks.o
 .bss           0x0000000000000000        0x0 build/kf_freertos_fpga/production/_ext/29258880/freertos_hooks.o
 .text.vApplicationIdleHook
                0x0000000000000000        0xe build/kf_freertos_fpga/production/_ext/29258880/freertos_hooks.o
 .text.vApplicationTickHook
                0x0000000000000000        0xe build/kf_freertos_fpga/production/_ext/29258880/freertos_hooks.o
 .text.vAssertCalled
                0x0000000000000000       0x26 build/kf_freertos_fpga/production/_ext/29258880/freertos_hooks.o
 .text          0x0000000000000000        0x0 build/kf_freertos_fpga/production/_ext/29258880/initialization.o
 .data          0x0000000000000000        0x0 build/kf_freertos_fpga/production/_ext/29258880/initialization.o
 .bss           0x0000000000000000        0x0 build/kf_freertos_fpga/production/_ext/29258880/initialization.o
 .text          0x0000000000000000        0x0 build/kf_freertos_fpga/production/_ext/29258880/interrupts.o
 .data          0x0000000000000000        0x0 build/kf_freertos_fpga/production/_ext/29258880/interrupts.o
 .bss           0x0000000000000000        0x0 build/kf_freertos_fpga/production/_ext/29258880/interrupts.o
 .text          0x0000000000000000        0x0 build/kf_freertos_fpga/production/_ext/29258880/libc_syscalls.o
 .data          0x0000000000000000        0x0 build/kf_freertos_fpga/production/_ext/29258880/libc_syscalls.o
 .bss           0x0000000000000000        0x0 build/kf_freertos_fpga/production/_ext/29258880/libc_syscalls.o
 .text._exit    0x0000000000000000        0xa build/kf_freertos_fpga/production/_ext/29258880/libc_syscalls.o
 .debug_info    0x0000000000000000       0xa6 build/kf_freertos_fpga/production/_ext/29258880/libc_syscalls.o
 .debug_abbrev  0x0000000000000000       0x5a build/kf_freertos_fpga/production/_ext/29258880/libc_syscalls.o
 .debug_loc     0x0000000000000000       0x38 build/kf_freertos_fpga/production/_ext/29258880/libc_syscalls.o
 .debug_aranges
                0x0000000000000000       0x20 build/kf_freertos_fpga/production/_ext/29258880/libc_syscalls.o
 .debug_ranges  0x0000000000000000       0x10 build/kf_freertos_fpga/production/_ext/29258880/libc_syscalls.o
 .debug_line    0x0000000000000000       0x63 build/kf_freertos_fpga/production/_ext/29258880/libc_syscalls.o
 .debug_str     0x0000000000000000      0x25c build/kf_freertos_fpga/production/_ext/29258880/libc_syscalls.o
 .comment       0x0000000000000000       0x2c build/kf_freertos_fpga/production/_ext/29258880/libc_syscalls.o
 .debug_frame   0x0000000000000000       0x2c build/kf_freertos_fpga/production/_ext/29258880/libc_syscalls.o
 .ARM.attributes
                0x0000000000000000       0x34 build/kf_freertos_fpga/production/_ext/29258880/libc_syscalls.o
 .text          0x0000000000000000        0x0 build/kf_freertos_fpga/production/_ext/29258880/startup_xc32.o
 .data          0x0000000000000000        0x0 build/kf_freertos_fpga/production/_ext/29258880/startup_xc32.o
 .bss           0x0000000000000000        0x0 build/kf_freertos_fpga/production/_ext/29258880/startup_xc32.o
 .text          0x0000000000000000        0x0 build/kf_freertos_fpga/production/_ext/29258880/tasks.o
 .data          0x0000000000000000        0x0 build/kf_freertos_fpga/production/_ext/29258880/tasks.o
 .bss           0x0000000000000000        0x0 build/kf_freertos_fpga/production/_ext/29258880/tasks.o
 .text          0x0000000000000000        0x0 build/kf_freertos_fpga/production/_ext/246609638/port.o
 .data          0x0000000000000000        0x0 build/kf_freertos_fpga/production/_ext/246609638/port.o
 .bss           0x0000000000000000        0x0 build/kf_freertos_fpga/production/_ext/246609638/port.o
 .text.vPortEndScheduler
                0x0000000000000000        0xe build/kf_freertos_fpga/production/_ext/246609638/port.o
 .text          0x0000000000000000        0x0 build/kf_freertos_fpga/production/_ext/1665200909/heap_1.o
 .data          0x0000000000000000        0x0 build/kf_freertos_fpga/production/_ext/1665200909/heap_1.o
 .bss           0x0000000000000000        0x0 build/kf_freertos_fpga/production/_ext/1665200909/heap_1.o
 .text.vPortInitialiseBlocks
                0x0000000000000000       0x18 build/kf_freertos_fpga/production/_ext/1665200909/heap_1.o
 .text.xPortGetFreeHeapSize
                0x0000000000000000       0x1c build/kf_freertos_fpga/production/_ext/1665200909/heap_1.o
 .text          0x0000000000000000        0x0 build/kf_freertos_fpga/production/_ext/404212886/queue.o
 .data          0x0000000000000000        0x0 build/kf_freertos_fpga/production/_ext/404212886/queue.o
 .bss           0x0000000000000000        0x0 build/kf_freertos_fpga/production/_ext/404212886/queue.o
 .text.xQueueGenericSendFromISR
                0x0000000000000000       0xb8 build/kf_freertos_fpga/production/_ext/404212886/queue.o
 .text.xQueuePeek
                0x0000000000000000      0x148 build/kf_freertos_fpga/production/_ext/404212886/queue.o
 .text.xQueueReceiveFromISR
                0x0000000000000000       0xac build/kf_freertos_fpga/production/_ext/404212886/queue.o
 .text.xQueuePeekFromISR
                0x0000000000000000       0x64 build/kf_freertos_fpga/production/_ext/404212886/queue.o
 .text.uxQueueMessagesWaiting
                0x0000000000000000       0x20 build/kf_freertos_fpga/production/_ext/404212886/queue.o
 .text.uxQueueSpacesAvailable
                0x0000000000000000       0x2a build/kf_freertos_fpga/production/_ext/404212886/queue.o
 .text.uxQueueMessagesWaitingFromISR
                0x0000000000000000       0x20 build/kf_freertos_fpga/production/_ext/404212886/queue.o
 .text.vQueueDelete
                0x0000000000000000       0x1a build/kf_freertos_fpga/production/_ext/404212886/queue.o
 .text.xQueueIsQueueEmptyFromISR
                0x0000000000000000       0x2c build/kf_freertos_fpga/production/_ext/404212886/queue.o
 .text.xQueueIsQueueFullFromISR
                0x0000000000000000       0x30 build/kf_freertos_fpga/production/_ext/404212886/queue.o
 .text          0x0000000000000000        0x0 build/kf_freertos_fpga/production/_ext/404212886/croutine.o
 .data          0x0000000000000000        0x0 build/kf_freertos_fpga/production/_ext/404212886/croutine.o
 .bss           0x0000000000000000        0x0 build/kf_freertos_fpga/production/_ext/404212886/croutine.o
 .debug_info    0x0000000000000000       0x79 build/kf_freertos_fpga/production/_ext/404212886/croutine.o
 .debug_abbrev  0x0000000000000000       0x26 build/kf_freertos_fpga/production/_ext/404212886/croutine.o
 .debug_aranges
                0x0000000000000000       0x18 build/kf_freertos_fpga/production/_ext/404212886/croutine.o
 .debug_line    0x0000000000000000       0x1d build/kf_freertos_fpga/production/_ext/404212886/croutine.o
 .debug_str     0x0000000000000000      0x25f build/kf_freertos_fpga/production/_ext/404212886/croutine.o
 .comment       0x0000000000000000       0x2c build/kf_freertos_fpga/production/_ext/404212886/croutine.o
 .ARM.attributes
                0x0000000000000000       0x39 build/kf_freertos_fpga/production/_ext/404212886/croutine.o
 .text          0x0000000000000000        0x0 build/kf_freertos_fpga/production/_ext/404212886/timers.o
 .data          0x0000000000000000        0x0 build/kf_freertos_fpga/production/_ext/404212886/timers.o
 .bss           0x0000000000000000        0x0 build/kf_freertos_fpga/production/_ext/404212886/timers.o
 .text.xTimerCreate
                0x0000000000000000       0x42 build/kf_freertos_fpga/production/_ext/404212886/timers.o
 .text.prvInitialiseNewTimer
                0x0000000000000000       0x54 build/kf_freertos_fpga/production/_ext/404212886/timers.o
 .text.xTimerGenericCommand
                0x0000000000000000       0x80 build/kf_freertos_fpga/production/_ext/404212886/timers.o
 .text.xTimerGetTimerDaemonTaskHandle
                0x0000000000000000       0x18 build/kf_freertos_fpga/production/_ext/404212886/timers.o
 .text.xTimerGetPeriod
                0x0000000000000000       0x1c build/kf_freertos_fpga/production/_ext/404212886/timers.o
 .text.vTimerSetReloadMode
                0x0000000000000000       0x4a build/kf_freertos_fpga/production/_ext/404212886/timers.o
 .text.uxTimerGetReloadMode
                0x0000000000000000       0x36 build/kf_freertos_fpga/production/_ext/404212886/timers.o
 .text.xTimerGetExpiryTime
                0x0000000000000000       0x20 build/kf_freertos_fpga/production/_ext/404212886/timers.o
 .text.pcTimerGetName
                0x0000000000000000       0x1c build/kf_freertos_fpga/production/_ext/404212886/timers.o
 .text.xTimerIsTimerActive
                0x0000000000000000       0x36 build/kf_freertos_fpga/production/_ext/404212886/timers.o
 .text.pvTimerGetTimerID
                0x0000000000000000       0x24 build/kf_freertos_fpga/production/_ext/404212886/timers.o
 .text.vTimerSetTimerID
                0x0000000000000000       0x24 build/kf_freertos_fpga/production/_ext/404212886/timers.o
 .text          0x0000000000000000        0x0 build/kf_freertos_fpga/production/_ext/404212886/list.o
 .data          0x0000000000000000        0x0 build/kf_freertos_fpga/production/_ext/404212886/list.o
 .bss           0x0000000000000000        0x0 build/kf_freertos_fpga/production/_ext/404212886/list.o
 .text.vListInsertEnd
                0x0000000000000000       0x48 build/kf_freertos_fpga/production/_ext/404212886/list.o
 .text          0x0000000000000000        0x0 build/kf_freertos_fpga/production/_ext/404212886/FreeRTOS_tasks.o
 .data          0x0000000000000000        0x0 build/kf_freertos_fpga/production/_ext/404212886/FreeRTOS_tasks.o
 .bss           0x0000000000000000        0x0 build/kf_freertos_fpga/production/_ext/404212886/FreeRTOS_tasks.o
 .text.vTaskDelete
                0x0000000000000000      0x108 build/kf_freertos_fpga/production/_ext/404212886/FreeRTOS_tasks.o
 .text.xTaskDelayUntil
                0x0000000000000000       0xa4 build/kf_freertos_fpga/production/_ext/404212886/FreeRTOS_tasks.o
 .text.uxTaskPriorityGet
                0x0000000000000000       0x34 build/kf_freertos_fpga/production/_ext/404212886/FreeRTOS_tasks.o
 .text.uxTaskPriorityGetFromISR
                0x0000000000000000       0x58 build/kf_freertos_fpga/production/_ext/404212886/FreeRTOS_tasks.o
 .text.vTaskPrioritySet
                0x0000000000000000      0x188 build/kf_freertos_fpga/production/_ext/404212886/FreeRTOS_tasks.o
 .text.vTaskSuspend
                0x0000000000000000      0x11c build/kf_freertos_fpga/production/_ext/404212886/FreeRTOS_tasks.o
 .text.prvTaskIsTaskSuspended
                0x0000000000000000       0x48 build/kf_freertos_fpga/production/_ext/404212886/FreeRTOS_tasks.o
 .text.vTaskResume
                0x0000000000000000       0xf0 build/kf_freertos_fpga/production/_ext/404212886/FreeRTOS_tasks.o
 .text.vTaskEndScheduler
                0x0000000000000000       0x30 build/kf_freertos_fpga/production/_ext/404212886/FreeRTOS_tasks.o
 .text.xTaskGetTickCountFromISR
                0x0000000000000000       0x24 build/kf_freertos_fpga/production/_ext/404212886/FreeRTOS_tasks.o
 .text.uxTaskGetNumberOfTasks
                0x0000000000000000       0x18 build/kf_freertos_fpga/production/_ext/404212886/FreeRTOS_tasks.o
 .text.pcTaskGetName
                0x0000000000000000       0x2c build/kf_freertos_fpga/production/_ext/404212886/FreeRTOS_tasks.o
 .text.xTaskCatchUpTicks
                0x0000000000000000       0x2c build/kf_freertos_fpga/production/_ext/404212886/FreeRTOS_tasks.o
 .text.vTaskPlaceOnUnorderedEventList
                0x0000000000000000       0x70 build/kf_freertos_fpga/production/_ext/404212886/FreeRTOS_tasks.o
 .text.vTaskRemoveFromUnorderedEventList
                0x0000000000000000      0x144 build/kf_freertos_fpga/production/_ext/404212886/FreeRTOS_tasks.o
 .text.vTaskSetTimeOutState
                0x0000000000000000       0x30 build/kf_freertos_fpga/production/_ext/404212886/FreeRTOS_tasks.o
 .text.xTaskGetCurrentTaskHandle
                0x0000000000000000       0x20 build/kf_freertos_fpga/production/_ext/404212886/FreeRTOS_tasks.o
 .text.xTaskGetSchedulerState
                0x0000000000000000       0x3c build/kf_freertos_fpga/production/_ext/404212886/FreeRTOS_tasks.o
 .text.uxTaskResetEventItemValue
                0x0000000000000000       0x30 build/kf_freertos_fpga/production/_ext/404212886/FreeRTOS_tasks.o
 .text.ulTaskGenericNotifyTake
                0x0000000000000000       0xbc build/kf_freertos_fpga/production/_ext/404212886/FreeRTOS_tasks.o
 .text.xTaskGenericNotifyWait
                0x0000000000000000       0xec build/kf_freertos_fpga/production/_ext/404212886/FreeRTOS_tasks.o
 .text.xTaskGenericNotify
                0x0000000000000000      0x1d0 build/kf_freertos_fpga/production/_ext/404212886/FreeRTOS_tasks.o
 .text.xTaskGenericNotifyFromISR
                0x0000000000000000      0x248 build/kf_freertos_fpga/production/_ext/404212886/FreeRTOS_tasks.o
 .text.vTaskGenericNotifyGiveFromISR
                0x0000000000000000      0x1b8 build/kf_freertos_fpga/production/_ext/404212886/FreeRTOS_tasks.o
 .text.xTaskGenericNotifyStateClear
                0x0000000000000000       0x58 build/kf_freertos_fpga/production/_ext/404212886/FreeRTOS_tasks.o
 .text.ulTaskGenericNotifyValueClear
                0x0000000000000000       0x60 build/kf_freertos_fpga/production/_ext/404212886/FreeRTOS_tasks.o
 .text          0x0000000000000000        0x0 build/kf_freertos_fpga/production/_ext/404212886/stream_buffer.o
 .data          0x0000000000000000        0x0 build/kf_freertos_fpga/production/_ext/404212886/stream_buffer.o
 .bss           0x0000000000000000        0x0 build/kf_freertos_fpga/production/_ext/404212886/stream_buffer.o
 .text.xStreamBufferGenericCreate
                0x0000000000000000       0x6a build/kf_freertos_fpga/production/_ext/404212886/stream_buffer.o
 .text.vStreamBufferDelete
                0x0000000000000000       0x32 build/kf_freertos_fpga/production/_ext/404212886/stream_buffer.o
 .text.xStreamBufferReset
                0x0000000000000000       0x50 build/kf_freertos_fpga/production/_ext/404212886/stream_buffer.o
 .text.xStreamBufferSetTriggerLevel
                0x0000000000000000       0x40 build/kf_freertos_fpga/production/_ext/404212886/stream_buffer.o
 .text.xStreamBufferSpacesAvailable
                0x0000000000000000       0x5a build/kf_freertos_fpga/production/_ext/404212886/stream_buffer.o
 .text.xStreamBufferBytesAvailable
                0x0000000000000000       0x1e build/kf_freertos_fpga/production/_ext/404212886/stream_buffer.o
 .text.xStreamBufferSend
                0x0000000000000000      0x126 build/kf_freertos_fpga/production/_ext/404212886/stream_buffer.o
 .text.xStreamBufferSendFromISR
                0x0000000000000000       0xac build/kf_freertos_fpga/production/_ext/404212886/stream_buffer.o
 .text.prvWriteMessageToBuffer
                0x0000000000000000       0x6c build/kf_freertos_fpga/production/_ext/404212886/stream_buffer.o
 .text.xStreamBufferReceive
                0x0000000000000000       0xda build/kf_freertos_fpga/production/_ext/404212886/stream_buffer.o
 .text.xStreamBufferNextMessageLengthBytes
                0x0000000000000000       0x50 build/kf_freertos_fpga/production/_ext/404212886/stream_buffer.o
 .text.xStreamBufferReceiveFromISR
                0x0000000000000000       0xa4 build/kf_freertos_fpga/production/_ext/404212886/stream_buffer.o
 .text.prvReadMessageFromBuffer
                0x0000000000000000       0x7a build/kf_freertos_fpga/production/_ext/404212886/stream_buffer.o
 .text.xStreamBufferIsEmpty
                0x0000000000000000       0x34 build/kf_freertos_fpga/production/_ext/404212886/stream_buffer.o
 .text.xStreamBufferIsFull
                0x0000000000000000       0x44 build/kf_freertos_fpga/production/_ext/404212886/stream_buffer.o
 .text.xStreamBufferSendCompletedFromISR
                0x0000000000000000       0x6c build/kf_freertos_fpga/production/_ext/404212886/stream_buffer.o
 .text.xStreamBufferReceiveCompletedFromISR
                0x0000000000000000       0x6c build/kf_freertos_fpga/production/_ext/404212886/stream_buffer.o
 .text.prvWriteBytesToBuffer
                0x0000000000000000       0x76 build/kf_freertos_fpga/production/_ext/404212886/stream_buffer.o
 .text.prvReadBytesFromBuffer
                0x0000000000000000       0x76 build/kf_freertos_fpga/production/_ext/404212886/stream_buffer.o
 .text.prvBytesInBuffer
                0x0000000000000000       0x40 build/kf_freertos_fpga/production/_ext/404212886/stream_buffer.o
 .text.prvInitialiseNewStreamBuffer
                0x0000000000000000       0x38 build/kf_freertos_fpga/production/_ext/404212886/stream_buffer.o
 .debug_info    0x0000000000000000      0xd4d build/kf_freertos_fpga/production/_ext/404212886/stream_buffer.o
 .debug_abbrev  0x0000000000000000      0x243 build/kf_freertos_fpga/production/_ext/404212886/stream_buffer.o
 .debug_loc     0x0000000000000000      0x6c3 build/kf_freertos_fpga/production/_ext/404212886/stream_buffer.o
 .debug_aranges
                0x0000000000000000       0xc0 build/kf_freertos_fpga/production/_ext/404212886/stream_buffer.o
 .debug_ranges  0x0000000000000000       0xb0 build/kf_freertos_fpga/production/_ext/404212886/stream_buffer.o
 .debug_line    0x0000000000000000      0x6b4 build/kf_freertos_fpga/production/_ext/404212886/stream_buffer.o
 .debug_str     0x0000000000000000      0x7fa build/kf_freertos_fpga/production/_ext/404212886/stream_buffer.o
 .comment       0x0000000000000000       0x2c build/kf_freertos_fpga/production/_ext/404212886/stream_buffer.o
 .debug_frame   0x0000000000000000      0x324 build/kf_freertos_fpga/production/_ext/404212886/stream_buffer.o
 .ARM.attributes
                0x0000000000000000       0x34 build/kf_freertos_fpga/production/_ext/404212886/stream_buffer.o
 .text          0x0000000000000000        0x0 build/kf_freertos_fpga/production/_ext/404212886/event_groups.o
 .data          0x0000000000000000        0x0 build/kf_freertos_fpga/production/_ext/404212886/event_groups.o
 .bss           0x0000000000000000        0x0 build/kf_freertos_fpga/production/_ext/404212886/event_groups.o
 .text.xEventGroupCreate
                0x0000000000000000       0x2e build/kf_freertos_fpga/production/_ext/404212886/event_groups.o
 .text.xEventGroupSync
                0x0000000000000000       0xf0 build/kf_freertos_fpga/production/_ext/404212886/event_groups.o
 .text.xEventGroupWaitBits
                0x0000000000000000      0x114 build/kf_freertos_fpga/production/_ext/404212886/event_groups.o
 .text.xEventGroupClearBits
                0x0000000000000000       0x34 build/kf_freertos_fpga/production/_ext/404212886/event_groups.o
 .text.xEventGroupGetBitsFromISR
                0x0000000000000000       0x46 build/kf_freertos_fpga/production/_ext/404212886/event_groups.o
 .text.xEventGroupSetBits
                0x0000000000000000       0xda build/kf_freertos_fpga/production/_ext/404212886/event_groups.o
 .text.vEventGroupDelete
                0x0000000000000000       0x40 build/kf_freertos_fpga/production/_ext/404212886/event_groups.o
 .text.vEventGroupSetBitsCallback
                0x0000000000000000       0x1a build/kf_freertos_fpga/production/_ext/404212886/event_groups.o
 .text.vEventGroupClearBitsCallback
                0x0000000000000000       0x1a build/kf_freertos_fpga/production/_ext/404212886/event_groups.o
 .text.prvTestWaitCondition
                0x0000000000000000       0x44 build/kf_freertos_fpga/production/_ext/404212886/event_groups.o
 .debug_info    0x0000000000000000      0x75a build/kf_freertos_fpga/production/_ext/404212886/event_groups.o
 .debug_abbrev  0x0000000000000000      0x1e3 build/kf_freertos_fpga/production/_ext/404212886/event_groups.o
 .debug_loc     0x0000000000000000      0x338 build/kf_freertos_fpga/production/_ext/404212886/event_groups.o
 .debug_aranges
                0x0000000000000000       0x68 build/kf_freertos_fpga/production/_ext/404212886/event_groups.o
 .debug_ranges  0x0000000000000000       0x58 build/kf_freertos_fpga/production/_ext/404212886/event_groups.o
 .debug_line    0x0000000000000000      0x416 build/kf_freertos_fpga/production/_ext/404212886/event_groups.o
 .debug_str     0x0000000000000000      0x60f build/kf_freertos_fpga/production/_ext/404212886/event_groups.o
 .comment       0x0000000000000000       0x2c build/kf_freertos_fpga/production/_ext/404212886/event_groups.o
 .debug_frame   0x0000000000000000      0x180 build/kf_freertos_fpga/production/_ext/404212886/event_groups.o
 .ARM.attributes
                0x0000000000000000       0x34 build/kf_freertos_fpga/production/_ext/404212886/event_groups.o
 .text          0x0000000000000000        0x0 build/kf_freertos_fpga/production/_ext/1521323865/test_ccc.o
 .data          0x0000000000000000        0x0 build/kf_freertos_fpga/production/_ext/1521323865/test_ccc.o
 .bss           0x0000000000000000        0x0 build/kf_freertos_fpga/production/_ext/1521323865/test_ccc.o
 .text.i3c_do_ccc
                0x0000000000000000       0x32 build/kf_freertos_fpga/production/_ext/1521323865/test_ccc.o
 .rodata        0x0000000000000000      0xbc4 build/kf_freertos_fpga/production/_ext/1521323865/test_ccc.o
 .text.test_ccc_broadcast
                0x0000000000000000      0x514 build/kf_freertos_fpga/production/_ext/1521323865/test_ccc.o
 .text.test_ccc_direct
                0x0000000000000000      0x6a4 build/kf_freertos_fpga/production/_ext/1521323865/test_ccc.o
 .text.test_bcast_ccc_all
                0x0000000000000000      0x23c build/kf_freertos_fpga/production/_ext/1521323865/test_ccc.o
 .text.test_direct_ccc_all
                0x0000000000000000      0x270 build/kf_freertos_fpga/production/_ext/1521323865/test_ccc.o
 .debug_info    0x0000000000000000     0x1a9f build/kf_freertos_fpga/production/_ext/1521323865/test_ccc.o
 .debug_abbrev  0x0000000000000000      0x2e4 build/kf_freertos_fpga/production/_ext/1521323865/test_ccc.o
 .debug_loc     0x0000000000000000      0x192 build/kf_freertos_fpga/production/_ext/1521323865/test_ccc.o
 .debug_aranges
                0x0000000000000000       0x40 build/kf_freertos_fpga/production/_ext/1521323865/test_ccc.o
 .debug_ranges  0x0000000000000000       0x30 build/kf_freertos_fpga/production/_ext/1521323865/test_ccc.o
 .debug_line    0x0000000000000000      0x6fc build/kf_freertos_fpga/production/_ext/1521323865/test_ccc.o
 .debug_str     0x0000000000000000     0x149f build/kf_freertos_fpga/production/_ext/1521323865/test_ccc.o
 .comment       0x0000000000000000       0x2c build/kf_freertos_fpga/production/_ext/1521323865/test_ccc.o
 .debug_frame   0x0000000000000000       0xd4 build/kf_freertos_fpga/production/_ext/1521323865/test_ccc.o
 .ARM.attributes
                0x0000000000000000       0x34 build/kf_freertos_fpga/production/_ext/1521323865/test_ccc.o
 .text          0x0000000000000000        0x0 build/kf_freertos_fpga/production/_ext/1521323865/test_pvt_xfer.o
 .data          0x0000000000000000        0x0 build/kf_freertos_fpga/production/_ext/1521323865/test_pvt_xfer.o
 .bss           0x0000000000000000        0x0 build/kf_freertos_fpga/production/_ext/1521323865/test_pvt_xfer.o
 .text          0x0000000000000000        0x0 build/kf_freertos_fpga/production/_ext/1521323865/test_icm42605.o
 .data          0x0000000000000000        0x0 build/kf_freertos_fpga/production/_ext/1521323865/test_icm42605.o
 .bss           0x0000000000000000        0x0 build/kf_freertos_fpga/production/_ext/1521323865/test_icm42605.o
 .text.i3c_transfer
                0x0000000000000000       0x30 build/kf_freertos_fpga/production/_ext/1521323865/test_icm42605.o
 .text.i3c_ibi_enable
                0x0000000000000000       0x36 build/kf_freertos_fpga/production/_ext/1521323865/test_icm42605.o
 .text.i3c_ibi_disable
                0x0000000000000000       0x36 build/kf_freertos_fpga/production/_ext/1521323865/test_icm42605.o
 .text.i3c_write
                0x0000000000000000       0x54 build/kf_freertos_fpga/production/_ext/1521323865/test_icm42605.o
 .text.i3c_write_read
                0x0000000000000000       0x90 build/kf_freertos_fpga/production/_ext/1521323865/test_icm42605.o
 .text.i3c_reg_read_byte
                0x0000000000000000       0x32 build/kf_freertos_fpga/production/_ext/1521323865/test_icm42605.o
 .text.i3c_reg_write_byte
                0x0000000000000000       0x34 build/kf_freertos_fpga/production/_ext/1521323865/test_icm42605.o
 .text.test_icm42605_bank_get
                0x0000000000000000       0x24 build/kf_freertos_fpga/production/_ext/1521323865/test_icm42605.o
 .text.test_icm42605_bank_change
                0x0000000000000000       0x22 build/kf_freertos_fpga/production/_ext/1521323865/test_icm42605.o
 .text.test_icm42605_init
                0x0000000000000000      0x1c6 build/kf_freertos_fpga/production/_ext/1521323865/test_icm42605.o
 .text.test_icm42605_reset
                0x0000000000000000       0x38 build/kf_freertos_fpga/production/_ext/1521323865/test_icm42605.o
 .text.test_icm42605_getChipID
                0x0000000000000000       0x48 build/kf_freertos_fpga/production/_ext/1521323865/test_icm42605.o
 .text.test_icm42605_status
                0x0000000000000000       0x44 build/kf_freertos_fpga/production/_ext/1521323865/test_icm42605.o
 .text.test_icm42605_readTempData
                0x0000000000000000       0x42 build/kf_freertos_fpga/production/_ext/1521323865/test_icm42605.o
 .rodata        0x0000000000000000       0x58 build/kf_freertos_fpga/production/_ext/1521323865/test_icm42605.o
 .text.test_icm42605_ibi_cb
                0x0000000000000000       0xac build/kf_freertos_fpga/production/_ext/1521323865/test_icm42605.o
 .text.test_icm42605_all
                0x0000000000000000       0xd0 build/kf_freertos_fpga/production/_ext/1521323865/test_icm42605.o
 .rodata.__FUNCTION__.11439
                0x0000000000000000       0x18 build/kf_freertos_fpga/production/_ext/1521323865/test_icm42605.o
 .debug_info    0x0000000000000000     0x1a58 build/kf_freertos_fpga/production/_ext/1521323865/test_icm42605.o
 .debug_abbrev  0x0000000000000000      0x2ea build/kf_freertos_fpga/production/_ext/1521323865/test_icm42605.o
 .debug_loc     0x0000000000000000      0x500 build/kf_freertos_fpga/production/_ext/1521323865/test_icm42605.o
 .debug_aranges
                0x0000000000000000       0x98 build/kf_freertos_fpga/production/_ext/1521323865/test_icm42605.o
 .debug_ranges  0x0000000000000000       0x88 build/kf_freertos_fpga/production/_ext/1521323865/test_icm42605.o
 .debug_line    0x0000000000000000      0x57d build/kf_freertos_fpga/production/_ext/1521323865/test_icm42605.o
 .debug_str     0x0000000000000000     0x110c build/kf_freertos_fpga/production/_ext/1521323865/test_icm42605.o
 .comment       0x0000000000000000       0x2c build/kf_freertos_fpga/production/_ext/1521323865/test_icm42605.o
 .debug_frame   0x0000000000000000      0x258 build/kf_freertos_fpga/production/_ext/1521323865/test_icm42605.o
 .ARM.attributes
                0x0000000000000000       0x34 build/kf_freertos_fpga/production/_ext/1521323865/test_icm42605.o
 .text          0x0000000000000000        0x0 build/kf_freertos_fpga/production/_ext/1521323865/test_ibis.o
 .data          0x0000000000000000        0x0 build/kf_freertos_fpga/production/_ext/1521323865/test_ibis.o
 .bss           0x0000000000000000        0x0 build/kf_freertos_fpga/production/_ext/1521323865/test_ibis.o
 .text.i3c_ibi_enable
                0x0000000000000000       0x36 build/kf_freertos_fpga/production/_ext/1521323865/test_ibis.o
 .rodata        0x0000000000000000       0x48 build/kf_freertos_fpga/production/_ext/1521323865/test_ibis.o
 .text.target_5b_ibi_cb
                0x0000000000000000       0x68 build/kf_freertos_fpga/production/_ext/1521323865/test_ibis.o
 .text.target_5c_ibi_cb
                0x0000000000000000       0x64 build/kf_freertos_fpga/production/_ext/1521323865/test_ibis.o
 .text.test_ibis_all
                0x0000000000000000       0xb0 build/kf_freertos_fpga/production/_ext/1521323865/test_ibis.o
 .rodata.__FUNCTION__.11405
                0x0000000000000000       0x14 build/kf_freertos_fpga/production/_ext/1521323865/test_ibis.o
 .rodata.__FUNCTION__.11412
                0x0000000000000000       0x14 build/kf_freertos_fpga/production/_ext/1521323865/test_ibis.o
 .debug_info    0x0000000000000000     0x15cc build/kf_freertos_fpga/production/_ext/1521323865/test_ibis.o
 .debug_abbrev  0x0000000000000000      0x292 build/kf_freertos_fpga/production/_ext/1521323865/test_ibis.o
 .debug_loc     0x0000000000000000      0x140 build/kf_freertos_fpga/production/_ext/1521323865/test_ibis.o
 .debug_aranges
                0x0000000000000000       0x38 build/kf_freertos_fpga/production/_ext/1521323865/test_ibis.o
 .debug_ranges  0x0000000000000000       0x28 build/kf_freertos_fpga/production/_ext/1521323865/test_ibis.o
 .debug_line    0x0000000000000000      0x3a8 build/kf_freertos_fpga/production/_ext/1521323865/test_ibis.o
 .debug_str     0x0000000000000000      0xf7d build/kf_freertos_fpga/production/_ext/1521323865/test_ibis.o
 .comment       0x0000000000000000       0x2c build/kf_freertos_fpga/production/_ext/1521323865/test_ibis.o
 .debug_frame   0x0000000000000000       0xa4 build/kf_freertos_fpga/production/_ext/1521323865/test_ibis.o
 .ARM.attributes
                0x0000000000000000       0x34 build/kf_freertos_fpga/production/_ext/1521323865/test_ibis.o
 .text          0x0000000000000000        0x0 build/kf_freertos_fpga/production/_ext/1521323865/tgt_test_pvt_xfer.o
 .data          0x0000000000000000        0x0 build/kf_freertos_fpga/production/_ext/1521323865/tgt_test_pvt_xfer.o
 .bss           0x0000000000000000        0x0 build/kf_freertos_fpga/production/_ext/1521323865/tgt_test_pvt_xfer.o
 .text          0x0000000000000000        0x0 build/kf_freertos_fpga/production/_ext/1521323865/crc8.o
 .data          0x0000000000000000        0x0 build/kf_freertos_fpga/production/_ext/1521323865/crc8.o
 .bss           0x0000000000000000        0x0 build/kf_freertos_fpga/production/_ext/1521323865/crc8.o
 .rodata.crc8_table
                0x0000000000000000      0x100 build/kf_freertos_fpga/production/_ext/1521323865/crc8.o
 .text.crc8_update
                0x0000000000000000       0x60 build/kf_freertos_fpga/production/_ext/1521323865/crc8.o
 .debug_info    0x0000000000000000      0x135 build/kf_freertos_fpga/production/_ext/1521323865/crc8.o
 .debug_abbrev  0x0000000000000000       0xae build/kf_freertos_fpga/production/_ext/1521323865/crc8.o
 .debug_loc     0x0000000000000000       0x5c build/kf_freertos_fpga/production/_ext/1521323865/crc8.o
 .debug_aranges
                0x0000000000000000       0x20 build/kf_freertos_fpga/production/_ext/1521323865/crc8.o
 .debug_ranges  0x0000000000000000       0x10 build/kf_freertos_fpga/production/_ext/1521323865/crc8.o
 .debug_line    0x0000000000000000       0xc5 build/kf_freertos_fpga/production/_ext/1521323865/crc8.o
 .debug_str     0x0000000000000000      0x27e build/kf_freertos_fpga/production/_ext/1521323865/crc8.o
 .comment       0x0000000000000000       0x2c build/kf_freertos_fpga/production/_ext/1521323865/crc8.o
 .debug_frame   0x0000000000000000       0x38 build/kf_freertos_fpga/production/_ext/1521323865/crc8.o
 .ARM.attributes
                0x0000000000000000       0x34 build/kf_freertos_fpga/production/_ext/1521323865/crc8.o
 .text          0x0000000000000000        0x0 build/kf_freertos_fpga/production/_ext/1521323865/tgt_test_ibis.o
 .data          0x0000000000000000        0x0 build/kf_freertos_fpga/production/_ext/1521323865/tgt_test_ibis.o
 .bss           0x0000000000000000        0x0 build/kf_freertos_fpga/production/_ext/1521323865/tgt_test_ibis.o
 .data.sir_ibi_payload
                0x0000000000000000        0x3 build/kf_freertos_fpga/production/_ext/1521323865/tgt_test_ibis.o
 .bss.tgt_dev   0x0000000000000000        0x4 build/kf_freertos_fpga/production/_ext/1521323865/tgt_test_ibis.o
 .bss.tgt_test_sir_ibi_tmr
                0x0000000000000000        0x4 build/kf_freertos_fpga/production/_ext/1521323865/tgt_test_ibis.o
 .bss.tgt_test_mr_ibi_tmr
                0x0000000000000000        0x4 build/kf_freertos_fpga/production/_ext/1521323865/tgt_test_ibis.o
 .data.sir_ibi_mdb_only
                0x0000000000000000        0xc build/kf_freertos_fpga/production/_ext/1521323865/tgt_test_ibis.o
 .data.sir_ibi_mdb_1byte_payload
                0x0000000000000000        0xc build/kf_freertos_fpga/production/_ext/1521323865/tgt_test_ibis.o
 .data.sir_ibi_mdb_2byte_payload
                0x0000000000000000        0xc build/kf_freertos_fpga/production/_ext/1521323865/tgt_test_ibis.o
 .data.mr_ibi   0x0000000000000000        0xc build/kf_freertos_fpga/production/_ext/1521323865/tgt_test_ibis.o
 .rodata        0x0000000000000000       0xb0 build/kf_freertos_fpga/production/_ext/1521323865/tgt_test_ibis.o
 .text.tgt_test_sir_ibi_cb
                0x0000000000000000       0xc0 build/kf_freertos_fpga/production/_ext/1521323865/tgt_test_ibis.o
 .text.tgt_test_sir_ibi_init
                0x0000000000000000       0x44 build/kf_freertos_fpga/production/_ext/1521323865/tgt_test_ibis.o
 .text.tgt_test_mr_ibi_cb
                0x0000000000000000       0x54 build/kf_freertos_fpga/production/_ext/1521323865/tgt_test_ibis.o
 .text.tgt_test_mr_ibi_init
                0x0000000000000000       0x44 build/kf_freertos_fpga/production/_ext/1521323865/tgt_test_ibis.o
 .text.tgt_test_ibis_all
                0x0000000000000000       0x2c build/kf_freertos_fpga/production/_ext/1521323865/tgt_test_ibis.o
 .debug_info    0x0000000000000000      0xde4 build/kf_freertos_fpga/production/_ext/1521323865/tgt_test_ibis.o
 .debug_abbrev  0x0000000000000000      0x216 build/kf_freertos_fpga/production/_ext/1521323865/tgt_test_ibis.o
 .debug_loc     0x0000000000000000      0x190 build/kf_freertos_fpga/production/_ext/1521323865/tgt_test_ibis.o
 .debug_aranges
                0x0000000000000000       0x40 build/kf_freertos_fpga/production/_ext/1521323865/tgt_test_ibis.o
 .debug_ranges  0x0000000000000000       0x30 build/kf_freertos_fpga/production/_ext/1521323865/tgt_test_ibis.o
 .debug_line    0x0000000000000000      0x3dd build/kf_freertos_fpga/production/_ext/1521323865/tgt_test_ibis.o
 .debug_str     0x0000000000000000      0xc0d build/kf_freertos_fpga/production/_ext/1521323865/tgt_test_ibis.o
 .comment       0x0000000000000000       0x2c build/kf_freertos_fpga/production/_ext/1521323865/tgt_test_ibis.o
 .debug_frame   0x0000000000000000       0xc8 build/kf_freertos_fpga/production/_ext/1521323865/tgt_test_ibis.o
 .ARM.attributes
                0x0000000000000000       0x34 build/kf_freertos_fpga/production/_ext/1521323865/tgt_test_ibis.o
 .text          0x0000000000000000        0x0 build/kf_freertos_fpga/production/_ext/1360937237/task1.o
 .data          0x0000000000000000        0x0 build/kf_freertos_fpga/production/_ext/1360937237/task1.o
 .bss           0x0000000000000000        0x0 build/kf_freertos_fpga/production/_ext/1360937237/task1.o
 .text.reset_i3c_regs_all
                0x0000000000000000      0x1dc build/kf_freertos_fpga/production/_ext/1360937237/task1.o
 .text.print_i3c_regs_all
                0x0000000000000000      0x678 build/kf_freertos_fpga/production/_ext/1360937237/task1.o
 .text.task_state_switch
                0x0000000000000000       0x2c build/kf_freertos_fpga/production/_ext/1360937237/task1.o
 .text.set_event
                0x0000000000000000       0x34 build/kf_freertos_fpga/production/_ext/1360937237/task1.o
 .text          0x0000000000000000        0x0 build/kf_freertos_fpga/production/_ext/1360937237/main.o
 .data          0x0000000000000000        0x0 build/kf_freertos_fpga/production/_ext/1360937237/main.o
 .bss           0x0000000000000000        0x0 build/kf_freertos_fpga/production/_ext/1360937237/main.o
 .text          0x0000000000000000        0x0 build/kf_freertos_fpga/production/_ext/1360937237/task2.o
 .data          0x0000000000000000        0x0 build/kf_freertos_fpga/production/_ext/1360937237/task2.o
 .bss           0x0000000000000000        0x0 build/kf_freertos_fpga/production/_ext/1360937237/task2.o
 .text.task2_state_switch
                0x0000000000000000       0x2c build/kf_freertos_fpga/production/_ext/1360937237/task2.o
 .text          0x0000000000000000        0x0 build/kf_freertos_fpga/production/_ext/1360937237/task3.o
 .data          0x0000000000000000        0x0 build/kf_freertos_fpga/production/_ext/1360937237/task3.o
 .bss           0x0000000000000000        0x0 build/kf_freertos_fpga/production/_ext/1360937237/task3.o
 .text          0x0000000000000000        0x0 c:/program files/microchip/xc32/v4.45/bin/bin/../../lib/gcc/pic32c/8.3.1/../../../../pic32c/lib/thumb/v7e-m+fp/hard\libpic32c.a(data_init.o)
 .data          0x0000000000000000        0x0 c:/program files/microchip/xc32/v4.45/bin/bin/../../lib/gcc/pic32c/8.3.1/../../../../pic32c/lib/thumb/v7e-m+fp/hard\libpic32c.a(data_init.o)
 .xc_stack_usage
                0x0000000000000000       0x4a c:/program files/microchip/xc32/v4.45/bin/bin/../../lib/gcc/pic32c/8.3.1/../../../../pic32c/lib/thumb/v7e-m+fp/hard\libpic32c.a(data_init.o)
 .xc_stack_usage.hdr
                0x0000000000000000        0xe c:/program files/microchip/xc32/v4.45/bin/bin/../../lib/gcc/pic32c/8.3.1/../../../../pic32c/lib/thumb/v7e-m+fp/hard\libpic32c.a(data_init.o)
 .text          0x0000000000000000        0x0 c:/program files/microchip/xc32/v4.45/bin/bin/../../lib/gcc/pic32c/8.3.1/../../../../pic32c/lib/thumb/v7e-m+fp/hard\libc-size-musl.a(memcpy.o)
 .data          0x0000000000000000        0x0 c:/program files/microchip/xc32/v4.45/bin/bin/../../lib/gcc/pic32c/8.3.1/../../../../pic32c/lib/thumb/v7e-m+fp/hard\libc-size-musl.a(memcpy.o)
 .bss           0x0000000000000000        0x0 c:/program files/microchip/xc32/v4.45/bin/bin/../../lib/gcc/pic32c/8.3.1/../../../../pic32c/lib/thumb/v7e-m+fp/hard\libc-size-musl.a(memcpy.o)
 .xc_stack_usage
                0x0000000000000000       0x14 c:/program files/microchip/xc32/v4.45/bin/bin/../../lib/gcc/pic32c/8.3.1/../../../../pic32c/lib/thumb/v7e-m+fp/hard\libc-size-musl.a(memcpy.o)
 .xc_stack_usage.hdr
                0x0000000000000000        0xe c:/program files/microchip/xc32/v4.45/bin/bin/../../lib/gcc/pic32c/8.3.1/../../../../pic32c/lib/thumb/v7e-m+fp/hard\libc-size-musl.a(memcpy.o)
 .text          0x0000000000000000        0x0 c:/program files/microchip/xc32/v4.45/bin/bin/../../lib/gcc/pic32c/8.3.1/../../../../pic32c/lib/thumb/v7e-m+fp/hard\libc-size-musl.a(memset.o)
 .data          0x0000000000000000        0x0 c:/program files/microchip/xc32/v4.45/bin/bin/../../lib/gcc/pic32c/8.3.1/../../../../pic32c/lib/thumb/v7e-m+fp/hard\libc-size-musl.a(memset.o)
 .bss           0x0000000000000000        0x0 c:/program files/microchip/xc32/v4.45/bin/bin/../../lib/gcc/pic32c/8.3.1/../../../../pic32c/lib/thumb/v7e-m+fp/hard\libc-size-musl.a(memset.o)
 .xc_stack_usage
                0x0000000000000000       0x14 c:/program files/microchip/xc32/v4.45/bin/bin/../../lib/gcc/pic32c/8.3.1/../../../../pic32c/lib/thumb/v7e-m+fp/hard\libc-size-musl.a(memset.o)
 .xc_stack_usage.hdr
                0x0000000000000000        0xe c:/program files/microchip/xc32/v4.45/bin/bin/../../lib/gcc/pic32c/8.3.1/../../../../pic32c/lib/thumb/v7e-m+fp/hard\libc-size-musl.a(memset.o)
 .text          0x0000000000000000        0x0 c:/program files/microchip/xc32/v4.45/bin/bin/../../lib/gcc/pic32c/8.3.1/../../../../pic32c/lib/thumb/v7e-m+fp/hard\libc-musl.a(__libc_start_main.o)
 .data          0x0000000000000000        0x0 c:/program files/microchip/xc32/v4.45/bin/bin/../../lib/gcc/pic32c/8.3.1/../../../../pic32c/lib/thumb/v7e-m+fp/hard\libc-musl.a(__libc_start_main.o)
 .bss           0x0000000000000000        0x0 c:/program files/microchip/xc32/v4.45/bin/bin/../../lib/gcc/pic32c/8.3.1/../../../../pic32c/lib/thumb/v7e-m+fp/hard\libc-musl.a(__libc_start_main.o)
 .xc_stack_usage
                0x0000000000000000       0x34 c:/program files/microchip/xc32/v4.45/bin/bin/../../lib/gcc/pic32c/8.3.1/../../../../pic32c/lib/thumb/v7e-m+fp/hard\libc-musl.a(__libc_start_main.o)
 .xc_stack_usage.hdr
                0x0000000000000000        0xe c:/program files/microchip/xc32/v4.45/bin/bin/../../lib/gcc/pic32c/8.3.1/../../../../pic32c/lib/thumb/v7e-m+fp/hard\libc-musl.a(__libc_start_main.o)
 .text          0x0000000000000000        0x0 c:/program files/microchip/xc32/v4.45/bin/bin/../../lib/gcc/pic32c/8.3.1/../../../../pic32c/lib/thumb/v7e-m+fp/hard\libc-musl.a(libc.o)
 .data          0x0000000000000000        0x0 c:/program files/microchip/xc32/v4.45/bin/bin/../../lib/gcc/pic32c/8.3.1/../../../../pic32c/lib/thumb/v7e-m+fp/hard\libc-musl.a(libc.o)
 .xc_stack_usage.hdr
                0x0000000000000000        0xe c:/program files/microchip/xc32/v4.45/bin/bin/../../lib/gcc/pic32c/8.3.1/../../../../pic32c/lib/thumb/v7e-m+fp/hard\libc-musl.a(libc.o)
 .text          0x0000000000000000        0x0 c:/program files/microchip/xc32/v4.45/bin/bin/../../lib/gcc/pic32c/8.3.1/../../../../pic32c/lib/thumb/v7e-m+fp/hard\libc-musl.a(__environ.o)
 .data          0x0000000000000000        0x0 c:/program files/microchip/xc32/v4.45/bin/bin/../../lib/gcc/pic32c/8.3.1/../../../../pic32c/lib/thumb/v7e-m+fp/hard\libc-musl.a(__environ.o)
 .xc_stack_usage.hdr
                0x0000000000000000        0xe c:/program files/microchip/xc32/v4.45/bin/bin/../../lib/gcc/pic32c/8.3.1/../../../../pic32c/lib/thumb/v7e-m+fp/hard\libc-musl.a(__environ.o)
 .data          0x0000000000000000        0x0 c:/program files/microchip/xc32/v4.45/bin/bin/../../lib/gcc/pic32c/8.3.1/thumb/v7e-m+fp/hard\libgcc.a(_paritysi2.o)
 .bss           0x0000000000000000        0x0 c:/program files/microchip/xc32/v4.45/bin/bin/../../lib/gcc/pic32c/8.3.1/thumb/v7e-m+fp/hard\libgcc.a(_paritysi2.o)
 .xc_stack_usage
                0x0000000000000000       0x19 c:/program files/microchip/xc32/v4.45/bin/bin/../../lib/gcc/pic32c/8.3.1/thumb/v7e-m+fp/hard\libgcc.a(_paritysi2.o)
 .xc_stack_usage.hdr
                0x0000000000000000        0xe c:/program files/microchip/xc32/v4.45/bin/bin/../../lib/gcc/pic32c/8.3.1/thumb/v7e-m+fp/hard\libgcc.a(_paritysi2.o)
 .text          0x0000000000000000        0x0 c:/program files/microchip/xc32/v4.45/bin/bin/../../lib/gcc/pic32c/8.3.1/thumb/v7e-m+fp/hard/crtend.o
 .data          0x0000000000000000        0x0 c:/program files/microchip/xc32/v4.45/bin/bin/../../lib/gcc/pic32c/8.3.1/thumb/v7e-m+fp/hard/crtend.o
 .bss           0x0000000000000000        0x0 c:/program files/microchip/xc32/v4.45/bin/bin/../../lib/gcc/pic32c/8.3.1/thumb/v7e-m+fp/hard/crtend.o
 .eh_frame      0x0000000000000000        0x4 c:/program files/microchip/xc32/v4.45/bin/bin/../../lib/gcc/pic32c/8.3.1/thumb/v7e-m+fp/hard/crtend.o
 .xc_stack_usage.hdr
                0x0000000000000000        0xe c:/program files/microchip/xc32/v4.45/bin/bin/../../lib/gcc/pic32c/8.3.1/thumb/v7e-m+fp/hard/crtend.o
 .comment       0x0000000000000000       0x2c c:/program files/microchip/xc32/v4.45/bin/bin/../../lib/gcc/pic32c/8.3.1/thumb/v7e-m+fp/hard/crtend.o
 .ARM.attributes
                0x0000000000000000       0x32 c:/program files/microchip/xc32/v4.45/bin/bin/../../lib/gcc/pic32c/8.3.1/thumb/v7e-m+fp/hard/crtend.o
 .text          0x0000000000000000        0x0 c:/program files/microchip/xc32/v4.45/bin/bin/../../lib/gcc/pic32c/8.3.1/thumb/v7e-m+fp/hard/crtn.o
 .data          0x0000000000000000        0x0 c:/program files/microchip/xc32/v4.45/bin/bin/../../lib/gcc/pic32c/8.3.1/thumb/v7e-m+fp/hard/crtn.o
 .bss           0x0000000000000000        0x0 c:/program files/microchip/xc32/v4.45/bin/bin/../../lib/gcc/pic32c/8.3.1/thumb/v7e-m+fp/hard/crtn.o
 .xc_stack_usage.hdr
                0x0000000000000000        0xe c:/program files/microchip/xc32/v4.45/bin/bin/../../lib/gcc/pic32c/8.3.1/thumb/v7e-m+fp/hard/crtn.o
 .text          0x0000000000000000        0x0 c:/program files/microchip/xc32/v4.45/bin/bin/../../lib/gcc/pic32c/8.3.1/../../../../pic32c/lib/thumb/v7e-m+fp/hard\libpic32c.a(pic32_data_init_clear.o)
 .data          0x0000000000000000        0x0 c:/program files/microchip/xc32/v4.45/bin/bin/../../lib/gcc/pic32c/8.3.1/../../../../pic32c/lib/thumb/v7e-m+fp/hard\libpic32c.a(pic32_data_init_clear.o)
 .bss           0x0000000000000000        0x0 c:/program files/microchip/xc32/v4.45/bin/bin/../../lib/gcc/pic32c/8.3.1/../../../../pic32c/lib/thumb/v7e-m+fp/hard\libpic32c.a(pic32_data_init_clear.o)
 .xc_stack_usage
                0x0000000000000000       0x1b c:/program files/microchip/xc32/v4.45/bin/bin/../../lib/gcc/pic32c/8.3.1/../../../../pic32c/lib/thumb/v7e-m+fp/hard\libpic32c.a(pic32_data_init_clear.o)
 .xc_stack_usage.hdr
                0x0000000000000000        0xe c:/program files/microchip/xc32/v4.45/bin/bin/../../lib/gcc/pic32c/8.3.1/../../../../pic32c/lib/thumb/v7e-m+fp/hard\libpic32c.a(pic32_data_init_clear.o)
 .text          0x0000000000000000        0x0 c:/program files/microchip/xc32/v4.45/bin/bin/../../lib/gcc/pic32c/8.3.1/../../../../pic32c/lib/thumb/v7e-m+fp/hard\libpic32c.a(pic32_data_init_copy.o)
 .data          0x0000000000000000        0x0 c:/program files/microchip/xc32/v4.45/bin/bin/../../lib/gcc/pic32c/8.3.1/../../../../pic32c/lib/thumb/v7e-m+fp/hard\libpic32c.a(pic32_data_init_copy.o)
 .bss           0x0000000000000000        0x0 c:/program files/microchip/xc32/v4.45/bin/bin/../../lib/gcc/pic32c/8.3.1/../../../../pic32c/lib/thumb/v7e-m+fp/hard\libpic32c.a(pic32_data_init_copy.o)
 .xc_stack_usage
                0x0000000000000000       0x1a c:/program files/microchip/xc32/v4.45/bin/bin/../../lib/gcc/pic32c/8.3.1/../../../../pic32c/lib/thumb/v7e-m+fp/hard\libpic32c.a(pic32_data_init_copy.o)
 .xc_stack_usage.hdr
                0x0000000000000000        0xe c:/program files/microchip/xc32/v4.45/bin/bin/../../lib/gcc/pic32c/8.3.1/../../../../pic32c/lib/thumb/v7e-m+fp/hard\libpic32c.a(pic32_data_init_copy.o)
 .text          0x0000000000000000        0x0 c:/program files/microchip/xc32/v4.45/bin/bin/../../lib/gcc/pic32c/8.3.1/../../../../pic32c/lib/thumb/v7e-m+fp/hard\libpic32c.a(pic32_data_init_decompress.o)
 .data          0x0000000000000000        0x0 c:/program files/microchip/xc32/v4.45/bin/bin/../../lib/gcc/pic32c/8.3.1/../../../../pic32c/lib/thumb/v7e-m+fp/hard\libpic32c.a(pic32_data_init_decompress.o)
 .bss           0x0000000000000000        0x0 c:/program files/microchip/xc32/v4.45/bin/bin/../../lib/gcc/pic32c/8.3.1/../../../../pic32c/lib/thumb/v7e-m+fp/hard\libpic32c.a(pic32_data_init_decompress.o)
 .xc_stack_usage
                0x0000000000000000       0x20 c:/program files/microchip/xc32/v4.45/bin/bin/../../lib/gcc/pic32c/8.3.1/../../../../pic32c/lib/thumb/v7e-m+fp/hard\libpic32c.a(pic32_data_init_decompress.o)
 .xc_stack_usage.hdr
                0x0000000000000000        0xe c:/program files/microchip/xc32/v4.45/bin/bin/../../lib/gcc/pic32c/8.3.1/../../../../pic32c/lib/thumb/v7e-m+fp/hard\libpic32c.a(pic32_data_init_decompress.o)

Memory Configuration

Name             Origin             Length             Attributes
rom              0x00000000000b0000 0x0000000000050000 xrl
ram              0x0000000000118000 0x000000000000a000 xw !r
*default*        0x0000000000000000 0xffffffffffffffff

Linker script and memory map

LOAD c:/program files/microchip/xc32/v4.45/bin/bin/../../lib/gcc/pic32c/8.3.1/thumb/v7e-m+fp/hard/crti.o
LOAD c:/program files/microchip/xc32/v4.45/bin/bin/../../lib/gcc/pic32c/8.3.1/thumb/v7e-m+fp/hard/crtbegin.o
LOAD build/kf_freertos_fpga/production/_ext/1420773124/serial.o
LOAD build/kf_freertos_fpga/production/_ext/1420773124/trace.o
LOAD build/kf_freertos_fpga/production/_ext/101992513/drv_i3c.o
LOAD build/kf_freertos_fpga/production/_ext/101992513/drv_i3c_config.o
LOAD build/kf_freertos_fpga/production/_ext/1886205328/i3c_ccc.o
LOAD build/kf_freertos_fpga/production/_ext/1886205328/i3c_common.o
LOAD build/kf_freertos_fpga/production/_ext/785111490/osal_freertos.o
LOAD build/kf_freertos_fpga/production/_ext/825503660/dma.o
LOAD build/kf_freertos_fpga/production/_ext/868947740/plib_ec_reg_bank.o
LOAD build/kf_freertos_fpga/production/_ext/179210842/plib_ecia.o
LOAD build/kf_freertos_fpga/production/_ext/179282931/plib_gpio.o
LOAD build/kf_freertos_fpga/production/_ext/825500651/plib_i3c.o
LOAD build/kf_freertos_fpga/production/_ext/825500651/plib_i3c_private.o
LOAD build/kf_freertos_fpga/production/_ext/179497222/plib_nvic.o
LOAD build/kf_freertos_fpga/production/_ext/825492421/plib_pcr.o
LOAD build/kf_freertos_fpga/production/_ext/1732944825/uart_api.o
LOAD build/kf_freertos_fpga/production/_ext/1732944825/uart_perphl.o
LOAD build/kf_freertos_fpga/production/_ext/1435074362/xc32_monitor.o
LOAD build/kf_freertos_fpga/production/_ext/29258880/exceptions.o
LOAD build/kf_freertos_fpga/production/_ext/29258880/freertos_hooks.o
LOAD build/kf_freertos_fpga/production/_ext/29258880/initialization.o
LOAD build/kf_freertos_fpga/production/_ext/29258880/interrupts.o
LOAD build/kf_freertos_fpga/production/_ext/29258880/libc_syscalls.o
LOAD build/kf_freertos_fpga/production/_ext/29258880/startup_xc32.o
LOAD build/kf_freertos_fpga/production/_ext/29258880/tasks.o
LOAD build/kf_freertos_fpga/production/_ext/246609638/port.o
LOAD build/kf_freertos_fpga/production/_ext/1665200909/heap_1.o
LOAD build/kf_freertos_fpga/production/_ext/404212886/queue.o
LOAD build/kf_freertos_fpga/production/_ext/404212886/croutine.o
LOAD build/kf_freertos_fpga/production/_ext/404212886/timers.o
LOAD build/kf_freertos_fpga/production/_ext/404212886/list.o
LOAD build/kf_freertos_fpga/production/_ext/404212886/FreeRTOS_tasks.o
LOAD build/kf_freertos_fpga/production/_ext/404212886/stream_buffer.o
LOAD build/kf_freertos_fpga/production/_ext/404212886/event_groups.o
LOAD build/kf_freertos_fpga/production/_ext/1521323865/test_ccc.o
LOAD build/kf_freertos_fpga/production/_ext/1521323865/test_pvt_xfer.o
LOAD build/kf_freertos_fpga/production/_ext/1521323865/test_icm42605.o
LOAD build/kf_freertos_fpga/production/_ext/1521323865/test_ibis.o
LOAD build/kf_freertos_fpga/production/_ext/1521323865/tgt_test_pvt_xfer.o
LOAD build/kf_freertos_fpga/production/_ext/1521323865/crc8.o
LOAD build/kf_freertos_fpga/production/_ext/1521323865/tgt_test_ibis.o
LOAD build/kf_freertos_fpga/production/_ext/1360937237/task1.o
LOAD build/kf_freertos_fpga/production/_ext/1360937237/main.o
LOAD build/kf_freertos_fpga/production/_ext/1360937237/task2.o
LOAD build/kf_freertos_fpga/production/_ext/1360937237/task3.o
                0x0000000000000001                __MPLAB_BUILD = 0x1
                0x0000000000100000                __rom_end = (ORIGIN (rom) + LENGTH (rom))
                0x0000000000122000                __ram_end = (ORIGIN (ram) + LENGTH (ram))

.vectors        0x00000000000b0000      0x350
                0x00000000000b0000                . = ALIGN (0x4)
                0x00000000000b0000                _sfixed = .
 *(.vectors .vectors.* .vectors_default .vectors_default.*)
 .vectors.exception_table
                0x00000000000b0000      0x350 build/kf_freertos_fpga/production/_ext/29258880/interrupts.o
                0x00000000000b0000                exception_table
 *(.isr_vector)
 *(.reset*)
 *(.after_vectors)

.text           0x00000000000b0350       0x20
                0x00000000000b0350                . = ALIGN (0x4)
 *(.glue_7t)
 .glue_7t       0x00000000000b0350        0x0 linker stubs
 *(.glue_7)
 .glue_7        0x00000000000b0350        0x0 linker stubs
 *(.gnu.linkonce.r.*)
 *(.ARM.extab* .gnu.linkonce.armextab.*)
                0x00000000000b0350                . = ALIGN (0x4)
 *(.init)
 .init          0x00000000000b0350        0x4 c:/program files/microchip/xc32/v4.45/bin/bin/../../lib/gcc/pic32c/8.3.1/thumb/v7e-m+fp/hard/crti.o
                0x00000000000b0350                _init
 .init          0x00000000000b0354        0x8 c:/program files/microchip/xc32/v4.45/bin/bin/../../lib/gcc/pic32c/8.3.1/thumb/v7e-m+fp/hard/crtn.o
                0x00000000000b035c                . = ALIGN (0x4)
                0x00000000000b035c                __preinit_array_start = .
 *(.preinit_array)
                0x00000000000b035c                __preinit_array_end = .
                0x00000000000b035c                . = ALIGN (0x4)
                0x00000000000b035c                __init_array_start = .
 *(SORT_BY_NAME(.init_array.*))
 *(.init_array)
 .init_array    0x00000000000b035c        0x4 c:/program files/microchip/xc32/v4.45/bin/bin/../../lib/gcc/pic32c/8.3.1/thumb/v7e-m+fp/hard/crtbegin.o
                0x00000000000b0360                __init_array_end = .
                0x00000000000b0360                . = ALIGN (0x4)
 *crtbegin.o(.ctors)
 *(EXCLUDE_FILE(*crtend.o) .ctors)
 *(SORT_BY_NAME(.ctors.*))
 *crtend.o(.ctors)
                0x00000000000b0360                . = ALIGN (0x4)
 *(.fini)
 .fini          0x00000000000b0360        0x4 c:/program files/microchip/xc32/v4.45/bin/bin/../../lib/gcc/pic32c/8.3.1/thumb/v7e-m+fp/hard/crti.o
                0x00000000000b0360                _fini
 .fini          0x00000000000b0364        0x8 c:/program files/microchip/xc32/v4.45/bin/bin/../../lib/gcc/pic32c/8.3.1/thumb/v7e-m+fp/hard/crtn.o
                0x00000000000b036c                . = ALIGN (0x4)
                0x00000000000b036c                __fini_array_start = .
 *(.fini_array)
 .fini_array    0x00000000000b036c        0x4 c:/program files/microchip/xc32/v4.45/bin/bin/../../lib/gcc/pic32c/8.3.1/thumb/v7e-m+fp/hard/crtbegin.o
 *(SORT_BY_NAME(.fini_array.*))
                0x00000000000b0370                __fini_array_end = .
 *crtbegin.o(.dtors)
 *(EXCLUDE_FILE(*crtend.o) .dtors)
 *(SORT_BY_NAME(.dtors.*))
 *crtend.o(.dtors)
                0x00000000000b0370                . = ALIGN (0x4)
                0x00000000000b0370                _efixed = .
                [!provide]                        PROVIDE (__exidx_start = .)

.ARM.exidx
 *(.ARM.exidx* .gnu.linkonce.armexidx.*)
                [!provide]                        PROVIDE (__exidx_end = .)
                0x00000000000b0370                . = ALIGN (0x4)
                0x00000000000b0370                _etext = .

.bss            0x0000000000118000        0x0
                0x0000000000118000                . = ALIGN (0x4)
                0x0000000000118000                __bss_start__ = .
                0x0000000000118000                _sbss = .
                0x0000000000118000                _szero = .
 *(COMMON)
                0x0000000000118000                . = ALIGN (0x4)
                0x0000000000118000                __bss_end__ = .
                0x0000000000118000                _ebss = .
                0x0000000000118000                _ezero = .
                0x0000000000118000                . = ALIGN (0x4)
                0x0000000000118000                _end = .
                0x0000000000121fff                _ram_end_ = ((ORIGIN (ram) + LENGTH (ram)) - 0x1)
                0x0000000000000200                _min_heap_size = 0x200
START GROUP
LOAD c:/program files/microchip/xc32/v4.45/bin/bin/../../lib/gcc/pic32c/8.3.1/../../../../pic32c/lib/thumb/v7e-m+fp/hard\libpic32c.a
LOAD c:/program files/microchip/xc32/v4.45/bin/bin/../../lib/gcc/pic32c/8.3.1/../../../../pic32c/lib/thumb/v7e-m+fp/hard\libc-size-musl.a
LOAD c:/program files/microchip/xc32/v4.45/bin/bin/../../lib/gcc/pic32c/8.3.1/../../../../pic32c/lib/thumb/v7e-m+fp/hard\liblmalloc-musl.a
LOAD c:/program files/microchip/xc32/v4.45/bin/bin/../../lib/gcc/pic32c/8.3.1/../../../../pic32c/lib/thumb/v7e-m+fp/hard\libm-fast-emfloat.a
LOAD c:/program files/microchip/xc32/v4.45/bin/bin/../../lib/gcc/pic32c/8.3.1/../../../../pic32c/lib/thumb/v7e-m+fp/hard\libm-musl.a
LOAD c:/program files/microchip/xc32/v4.45/bin/bin/../../lib/gcc/pic32c/8.3.1/../../../../pic32c/lib/thumb/v7e-m+fp/hard\libc-musl.a
LOAD c:/program files/microchip/xc32/v4.45/bin/bin/../../lib/gcc/pic32c/8.3.1/../../../../pic32c/lib/thumb/v7e-m+fp/hard\libm-fast-emfloat.a
LOAD c:/program files/microchip/xc32/v4.45/bin/bin/../../lib/gcc/pic32c/8.3.1/../../../../pic32c/lib/thumb/v7e-m+fp/hard\libm-musl.a
LOAD c:/program files/microchip/xc32/v4.45/bin/bin/../../lib/gcc/pic32c/8.3.1/thumb/v7e-m+fp/hard\libgcc.a
END GROUP
LOAD c:/program files/microchip/xc32/v4.45/bin/bin/../../lib/gcc/pic32c/8.3.1/thumb/v7e-m+fp/hard/crtend.o
LOAD c:/program files/microchip/xc32/v4.45/bin/bin/../../lib/gcc/pic32c/8.3.1/thumb/v7e-m+fp/hard/crtn.o
OUTPUT(dist/kf_freertos_fpga/production/kf_freertos_fpga.X.production.elf elf32-littlearm)
LOAD data_init
LOAD stack

.ARM.attributes
                0x0000000000000000       0x34
 .ARM.attributes
                0x0000000000000000       0x1e c:/program files/microchip/xc32/v4.45/bin/bin/../../lib/gcc/pic32c/8.3.1/thumb/v7e-m+fp/hard/crti.o
 .ARM.attributes
                0x000000000000001e       0x34 c:/program files/microchip/xc32/v4.45/bin/bin/../../lib/gcc/pic32c/8.3.1/thumb/v7e-m+fp/hard/crtbegin.o
 .ARM.attributes
                0x0000000000000052       0x34 build/kf_freertos_fpga/production/_ext/1420773124/serial.o
 .ARM.attributes
                0x0000000000000086       0x34 build/kf_freertos_fpga/production/_ext/1420773124/trace.o
 .ARM.attributes
                0x00000000000000ba       0x34 build/kf_freertos_fpga/production/_ext/101992513/drv_i3c.o
 .ARM.attributes
                0x00000000000000ee       0x34 build/kf_freertos_fpga/production/_ext/101992513/drv_i3c_config.o
 .ARM.attributes
                0x0000000000000122       0x34 build/kf_freertos_fpga/production/_ext/1886205328/i3c_ccc.o
 .ARM.attributes
                0x0000000000000156       0x34 build/kf_freertos_fpga/production/_ext/1886205328/i3c_common.o
 .ARM.attributes
                0x000000000000018a       0x34 build/kf_freertos_fpga/production/_ext/785111490/osal_freertos.o
 .ARM.attributes
                0x00000000000001be       0x34 build/kf_freertos_fpga/production/_ext/868947740/plib_ec_reg_bank.o
 .ARM.attributes
                0x00000000000001f2       0x34 build/kf_freertos_fpga/production/_ext/179210842/plib_ecia.o
 .ARM.attributes
                0x0000000000000226       0x34 build/kf_freertos_fpga/production/_ext/179282931/plib_gpio.o
 .ARM.attributes
                0x000000000000025a       0x34 build/kf_freertos_fpga/production/_ext/825500651/plib_i3c.o
 .ARM.attributes
                0x000000000000028e       0x34 build/kf_freertos_fpga/production/_ext/825500651/plib_i3c_private.o
 .ARM.attributes
                0x00000000000002c2       0x34 build/kf_freertos_fpga/production/_ext/179497222/plib_nvic.o
 .ARM.attributes
                0x00000000000002f6       0x34 build/kf_freertos_fpga/production/_ext/825492421/plib_pcr.o
 .ARM.attributes
                0x000000000000032a       0x34 build/kf_freertos_fpga/production/_ext/1732944825/uart_api.o
 .ARM.attributes
                0x000000000000035e       0x34 build/kf_freertos_fpga/production/_ext/1732944825/uart_perphl.o
 .ARM.attributes
                0x0000000000000392       0x34 build/kf_freertos_fpga/production/_ext/29258880/exceptions.o
 .ARM.attributes
                0x00000000000003c6       0x34 build/kf_freertos_fpga/production/_ext/29258880/freertos_hooks.o
 .ARM.attributes
                0x00000000000003fa       0x34 build/kf_freertos_fpga/production/_ext/29258880/initialization.o
 .ARM.attributes
                0x000000000000042e       0x34 build/kf_freertos_fpga/production/_ext/29258880/interrupts.o
 .ARM.attributes
                0x0000000000000462       0x34 build/kf_freertos_fpga/production/_ext/29258880/startup_xc32.o
 .ARM.attributes
                0x0000000000000496       0x34 build/kf_freertos_fpga/production/_ext/29258880/tasks.o
 .ARM.attributes
                0x00000000000004ca       0x34 build/kf_freertos_fpga/production/_ext/246609638/port.o
 .ARM.attributes
                0x00000000000004fe       0x34 build/kf_freertos_fpga/production/_ext/1665200909/heap_1.o
 .ARM.attributes
                0x0000000000000532       0x34 build/kf_freertos_fpga/production/_ext/404212886/queue.o
 .ARM.attributes
                0x0000000000000566       0x34 build/kf_freertos_fpga/production/_ext/404212886/timers.o
 .ARM.attributes
                0x000000000000059a       0x34 build/kf_freertos_fpga/production/_ext/404212886/list.o
 .ARM.attributes
                0x00000000000005ce       0x34 build/kf_freertos_fpga/production/_ext/404212886/FreeRTOS_tasks.o
 .ARM.attributes
                0x0000000000000602       0x34 build/kf_freertos_fpga/production/_ext/1521323865/test_pvt_xfer.o
 .ARM.attributes
                0x0000000000000636       0x34 build/kf_freertos_fpga/production/_ext/1521323865/tgt_test_pvt_xfer.o
 .ARM.attributes
                0x000000000000066a       0x34 build/kf_freertos_fpga/production/_ext/1360937237/task1.o
 .ARM.attributes
                0x000000000000069e       0x34 build/kf_freertos_fpga/production/_ext/1360937237/main.o
 .ARM.attributes
                0x00000000000006d2       0x34 build/kf_freertos_fpga/production/_ext/1360937237/task2.o
 .ARM.attributes
                0x0000000000000706       0x34 build/kf_freertos_fpga/production/_ext/1360937237/task3.o
 .ARM.attributes
                0x000000000000073a       0x34 c:/program files/microchip/xc32/v4.45/bin/bin/../../lib/gcc/pic32c/8.3.1/../../../../pic32c/lib/thumb/v7e-m+fp/hard\libpic32c.a(data_init.o)
 .ARM.attributes
                0x000000000000076e       0x36 c:/program files/microchip/xc32/v4.45/bin/bin/../../lib/gcc/pic32c/8.3.1/../../../../pic32c/lib/thumb/v7e-m+fp/hard\libc-size-musl.a(memcpy.o)
 .ARM.attributes
                0x00000000000007a4       0x36 c:/program files/microchip/xc32/v4.45/bin/bin/../../lib/gcc/pic32c/8.3.1/../../../../pic32c/lib/thumb/v7e-m+fp/hard\libc-size-musl.a(memset.o)
 .ARM.attributes
                0x00000000000007da       0x36 c:/program files/microchip/xc32/v4.45/bin/bin/../../lib/gcc/pic32c/8.3.1/../../../../pic32c/lib/thumb/v7e-m+fp/hard\libc-musl.a(__libc_start_main.o)
 .ARM.attributes
                0x0000000000000810       0x34 c:/program files/microchip/xc32/v4.45/bin/bin/../../lib/gcc/pic32c/8.3.1/../../../../pic32c/lib/thumb/v7e-m+fp/hard\libc-musl.a(libc.o)
 .ARM.attributes
                0x0000000000000844       0x34 c:/program files/microchip/xc32/v4.45/bin/bin/../../lib/gcc/pic32c/8.3.1/../../../../pic32c/lib/thumb/v7e-m+fp/hard\libc-musl.a(__environ.o)
 .ARM.attributes
                0x0000000000000878       0x34 c:/program files/microchip/xc32/v4.45/bin/bin/../../lib/gcc/pic32c/8.3.1/thumb/v7e-m+fp/hard\libgcc.a(_paritysi2.o)
 .ARM.attributes
                0x00000000000008ac       0x1e c:/program files/microchip/xc32/v4.45/bin/bin/../../lib/gcc/pic32c/8.3.1/thumb/v7e-m+fp/hard/crtn.o
 .ARM.attributes
                0x00000000000008ca       0x34 c:/program files/microchip/xc32/v4.45/bin/bin/../../lib/gcc/pic32c/8.3.1/../../../../pic32c/lib/thumb/v7e-m+fp/hard\libpic32c.a(pic32_data_init_clear.o)
 .ARM.attributes
                0x00000000000008fe       0x34 c:/program files/microchip/xc32/v4.45/bin/bin/../../lib/gcc/pic32c/8.3.1/../../../../pic32c/lib/thumb/v7e-m+fp/hard\libpic32c.a(pic32_data_init_copy.o)
 .ARM.attributes
                0x0000000000000932       0x34 c:/program files/microchip/xc32/v4.45/bin/bin/../../lib/gcc/pic32c/8.3.1/../../../../pic32c/lib/thumb/v7e-m+fp/hard\libpic32c.a(pic32_data_init_decompress.o)

.comment        0x0000000000000000       0x2b
 .comment       0x0000000000000000       0x2b c:/program files/microchip/xc32/v4.45/bin/bin/../../lib/gcc/pic32c/8.3.1/thumb/v7e-m+fp/hard/crtbegin.o
                                         0x2c (size before relaxing)
 .comment       0x000000000000002b       0x2c build/kf_freertos_fpga/production/_ext/1420773124/serial.o
 .comment       0x000000000000002b       0x2c build/kf_freertos_fpga/production/_ext/1420773124/trace.o
 .comment       0x000000000000002b       0x2c build/kf_freertos_fpga/production/_ext/101992513/drv_i3c.o
 .comment       0x000000000000002b       0x2c build/kf_freertos_fpga/production/_ext/101992513/drv_i3c_config.o
 .comment       0x000000000000002b       0x2c build/kf_freertos_fpga/production/_ext/1886205328/i3c_ccc.o
 .comment       0x000000000000002b       0x2c build/kf_freertos_fpga/production/_ext/1886205328/i3c_common.o
 .comment       0x000000000000002b       0x2c build/kf_freertos_fpga/production/_ext/785111490/osal_freertos.o
 .comment       0x000000000000002b       0x2c build/kf_freertos_fpga/production/_ext/868947740/plib_ec_reg_bank.o
 .comment       0x000000000000002b       0x2c build/kf_freertos_fpga/production/_ext/179210842/plib_ecia.o
 .comment       0x000000000000002b       0x2c build/kf_freertos_fpga/production/_ext/179282931/plib_gpio.o
 .comment       0x000000000000002b       0x2c build/kf_freertos_fpga/production/_ext/825500651/plib_i3c.o
 .comment       0x000000000000002b       0x2c build/kf_freertos_fpga/production/_ext/825500651/plib_i3c_private.o
 .comment       0x000000000000002b       0x2c build/kf_freertos_fpga/production/_ext/179497222/plib_nvic.o
 .comment       0x000000000000002b       0x2c build/kf_freertos_fpga/production/_ext/825492421/plib_pcr.o
 .comment       0x000000000000002b       0x2c build/kf_freertos_fpga/production/_ext/1732944825/uart_api.o
 .comment       0x000000000000002b       0x2c build/kf_freertos_fpga/production/_ext/1732944825/uart_perphl.o
 .comment       0x000000000000002b       0x2c build/kf_freertos_fpga/production/_ext/29258880/exceptions.o
 .comment       0x000000000000002b       0x2c build/kf_freertos_fpga/production/_ext/29258880/freertos_hooks.o
 .comment       0x000000000000002b       0x2c build/kf_freertos_fpga/production/_ext/29258880/initialization.o
 .comment       0x000000000000002b       0x2c build/kf_freertos_fpga/production/_ext/29258880/interrupts.o
 .comment       0x000000000000002b       0x2c build/kf_freertos_fpga/production/_ext/29258880/startup_xc32.o
 .comment       0x000000000000002b       0x2c build/kf_freertos_fpga/production/_ext/29258880/tasks.o
 .comment       0x000000000000002b       0x2c build/kf_freertos_fpga/production/_ext/246609638/port.o
 .comment       0x000000000000002b       0x2c build/kf_freertos_fpga/production/_ext/1665200909/heap_1.o
 .comment       0x000000000000002b       0x2c build/kf_freertos_fpga/production/_ext/404212886/queue.o
 .comment       0x000000000000002b       0x2c build/kf_freertos_fpga/production/_ext/404212886/timers.o
 .comment       0x000000000000002b       0x2c build/kf_freertos_fpga/production/_ext/404212886/list.o
 .comment       0x000000000000002b       0x2c build/kf_freertos_fpga/production/_ext/404212886/FreeRTOS_tasks.o
 .comment       0x000000000000002b       0x2c build/kf_freertos_fpga/production/_ext/1521323865/test_pvt_xfer.o
 .comment       0x000000000000002b       0x2c build/kf_freertos_fpga/production/_ext/1521323865/tgt_test_pvt_xfer.o
 .comment       0x000000000000002b       0x2c build/kf_freertos_fpga/production/_ext/1360937237/task1.o
 .comment       0x000000000000002b       0x2c build/kf_freertos_fpga/production/_ext/1360937237/main.o
 .comment       0x000000000000002b       0x2c build/kf_freertos_fpga/production/_ext/1360937237/task2.o
 .comment       0x000000000000002b       0x2c build/kf_freertos_fpga/production/_ext/1360937237/task3.o
 .comment       0x000000000000002b       0x2c c:/program files/microchip/xc32/v4.45/bin/bin/../../lib/gcc/pic32c/8.3.1/../../../../pic32c/lib/thumb/v7e-m+fp/hard\libpic32c.a(data_init.o)
 .comment       0x000000000000002b       0x2c c:/program files/microchip/xc32/v4.45/bin/bin/../../lib/gcc/pic32c/8.3.1/../../../../pic32c/lib/thumb/v7e-m+fp/hard\libc-size-musl.a(memcpy.o)
 .comment       0x000000000000002b       0x2c c:/program files/microchip/xc32/v4.45/bin/bin/../../lib/gcc/pic32c/8.3.1/../../../../pic32c/lib/thumb/v7e-m+fp/hard\libc-size-musl.a(memset.o)
 .comment       0x000000000000002b       0x2c c:/program files/microchip/xc32/v4.45/bin/bin/../../lib/gcc/pic32c/8.3.1/../../../../pic32c/lib/thumb/v7e-m+fp/hard\libc-musl.a(__libc_start_main.o)
 .comment       0x000000000000002b       0x2c c:/program files/microchip/xc32/v4.45/bin/bin/../../lib/gcc/pic32c/8.3.1/../../../../pic32c/lib/thumb/v7e-m+fp/hard\libc-musl.a(libc.o)
 .comment       0x000000000000002b       0x2c c:/program files/microchip/xc32/v4.45/bin/bin/../../lib/gcc/pic32c/8.3.1/../../../../pic32c/lib/thumb/v7e-m+fp/hard\libc-musl.a(__environ.o)
 .comment       0x000000000000002b       0x2c c:/program files/microchip/xc32/v4.45/bin/bin/../../lib/gcc/pic32c/8.3.1/thumb/v7e-m+fp/hard\libgcc.a(_paritysi2.o)
 .comment       0x000000000000002b       0x2c c:/program files/microchip/xc32/v4.45/bin/bin/../../lib/gcc/pic32c/8.3.1/../../../../pic32c/lib/thumb/v7e-m+fp/hard\libpic32c.a(pic32_data_init_clear.o)
 .comment       0x000000000000002b       0x2c c:/program files/microchip/xc32/v4.45/bin/bin/../../lib/gcc/pic32c/8.3.1/../../../../pic32c/lib/thumb/v7e-m+fp/hard\libpic32c.a(pic32_data_init_copy.o)
 .comment       0x000000000000002b       0x2c c:/program files/microchip/xc32/v4.45/bin/bin/../../lib/gcc/pic32c/8.3.1/../../../../pic32c/lib/thumb/v7e-m+fp/hard\libpic32c.a(pic32_data_init_decompress.o)

.debug_info     0x0000000000000000    0x1d61c
 .debug_info    0x0000000000000000      0x17b build/kf_freertos_fpga/production/_ext/1420773124/serial.o
 .debug_info    0x000000000000017b      0x39a build/kf_freertos_fpga/production/_ext/1420773124/trace.o
 .debug_info    0x0000000000000515     0x3999 build/kf_freertos_fpga/production/_ext/101992513/drv_i3c.o
 .debug_info    0x0000000000003eae     0x1b65 build/kf_freertos_fpga/production/_ext/101992513/drv_i3c_config.o
 .debug_info    0x0000000000005a13     0x1a27 build/kf_freertos_fpga/production/_ext/1886205328/i3c_ccc.o
 .debug_info    0x000000000000743a     0x1c63 build/kf_freertos_fpga/production/_ext/1886205328/i3c_common.o
 .debug_info    0x000000000000909d      0x50c build/kf_freertos_fpga/production/_ext/785111490/osal_freertos.o
 .debug_info    0x00000000000095a9      0x6d5 build/kf_freertos_fpga/production/_ext/868947740/plib_ec_reg_bank.o
 .debug_info    0x0000000000009c7e     0x15be build/kf_freertos_fpga/production/_ext/179210842/plib_ecia.o
 .debug_info    0x000000000000b23c     0x11a7 build/kf_freertos_fpga/production/_ext/179282931/plib_gpio.o
 .debug_info    0x000000000000c3e3     0x1ead build/kf_freertos_fpga/production/_ext/825500651/plib_i3c.o
 .debug_info    0x000000000000e290     0x252b build/kf_freertos_fpga/production/_ext/825500651/plib_i3c_private.o
 .debug_info    0x00000000000107bb      0x850 build/kf_freertos_fpga/production/_ext/179497222/plib_nvic.o
 .debug_info    0x000000000001100b      0xcad build/kf_freertos_fpga/production/_ext/825492421/plib_pcr.o
 .debug_info    0x0000000000011cb8      0x33e build/kf_freertos_fpga/production/_ext/1732944825/uart_api.o
 .debug_info    0x0000000000011ff6      0xb2f build/kf_freertos_fpga/production/_ext/1732944825/uart_perphl.o
 .debug_info    0x0000000000012b25      0x11c build/kf_freertos_fpga/production/_ext/29258880/exceptions.o
 .debug_info    0x0000000000012c41      0x1e9 build/kf_freertos_fpga/production/_ext/29258880/freertos_hooks.o
 .debug_info    0x0000000000012e2a      0x177 build/kf_freertos_fpga/production/_ext/29258880/initialization.o
 .debug_info    0x0000000000012fa1      0xe64 build/kf_freertos_fpga/production/_ext/29258880/interrupts.o
 .debug_info    0x0000000000013e05      0x3ba build/kf_freertos_fpga/production/_ext/29258880/startup_xc32.o
 .debug_info    0x00000000000141bf      0x19e build/kf_freertos_fpga/production/_ext/29258880/tasks.o
 .debug_info    0x000000000001435d      0x347 build/kf_freertos_fpga/production/_ext/246609638/port.o
 .debug_info    0x00000000000146a4      0x1a4 build/kf_freertos_fpga/production/_ext/1665200909/heap_1.o
 .debug_info    0x0000000000014848     0x10bc build/kf_freertos_fpga/production/_ext/404212886/queue.o
 .debug_info    0x0000000000015904      0xb0a build/kf_freertos_fpga/production/_ext/404212886/timers.o
 .debug_info    0x000000000001640e      0x2f5 build/kf_freertos_fpga/production/_ext/404212886/list.o
 .debug_info    0x0000000000016703     0x1c2b build/kf_freertos_fpga/production/_ext/404212886/FreeRTOS_tasks.o
 .debug_info    0x000000000001832e     0x18ed build/kf_freertos_fpga/production/_ext/1521323865/test_pvt_xfer.o
 .debug_info    0x0000000000019c1b     0x1020 build/kf_freertos_fpga/production/_ext/1521323865/tgt_test_pvt_xfer.o
 .debug_info    0x000000000001ac3b     0x1158 build/kf_freertos_fpga/production/_ext/1360937237/task1.o
 .debug_info    0x000000000001bd93       0xa7 build/kf_freertos_fpga/production/_ext/1360937237/main.o
 .debug_info    0x000000000001be3a      0x8f5 build/kf_freertos_fpga/production/_ext/1360937237/task2.o
 .debug_info    0x000000000001c72f      0x553 build/kf_freertos_fpga/production/_ext/1360937237/task3.o
 .debug_info    0x000000000001cc82       0x54 c:/program files/microchip/xc32/v4.45/bin/bin/../../lib/gcc/pic32c/8.3.1/../../../../pic32c/lib/thumb/v7e-m+fp/hard\libpic32c.a(data_init.o)
 .debug_info    0x000000000001ccd6       0xf3 c:/program files/microchip/xc32/v4.45/bin/bin/../../lib/gcc/pic32c/8.3.1/../../../../pic32c/lib/thumb/v7e-m+fp/hard\libc-size-musl.a(memcpy.o)
 .debug_info    0x000000000001cdc9       0xbb c:/program files/microchip/xc32/v4.45/bin/bin/../../lib/gcc/pic32c/8.3.1/../../../../pic32c/lib/thumb/v7e-m+fp/hard\libc-size-musl.a(memset.o)
 .debug_info    0x000000000001ce84      0x2fb c:/program files/microchip/xc32/v4.45/bin/bin/../../lib/gcc/pic32c/8.3.1/../../../../pic32c/lib/thumb/v7e-m+fp/hard\libc-musl.a(__libc_start_main.o)
 .debug_info    0x000000000001d17f      0x276 c:/program files/microchip/xc32/v4.45/bin/bin/../../lib/gcc/pic32c/8.3.1/../../../../pic32c/lib/thumb/v7e-m+fp/hard\libc-musl.a(libc.o)
 .debug_info    0x000000000001d3f5       0x97 c:/program files/microchip/xc32/v4.45/bin/bin/../../lib/gcc/pic32c/8.3.1/../../../../pic32c/lib/thumb/v7e-m+fp/hard\libc-musl.a(__environ.o)
 .debug_info    0x000000000001d48c       0xd1 c:/program files/microchip/xc32/v4.45/bin/bin/../../lib/gcc/pic32c/8.3.1/thumb/v7e-m+fp/hard\libgcc.a(_paritysi2.o)
 .debug_info    0x000000000001d55d       0x3f c:/program files/microchip/xc32/v4.45/bin/bin/../../lib/gcc/pic32c/8.3.1/../../../../pic32c/lib/thumb/v7e-m+fp/hard\libpic32c.a(pic32_data_init_clear.o)
 .debug_info    0x000000000001d59c       0x40 c:/program files/microchip/xc32/v4.45/bin/bin/../../lib/gcc/pic32c/8.3.1/../../../../pic32c/lib/thumb/v7e-m+fp/hard\libpic32c.a(pic32_data_init_copy.o)
 .debug_info    0x000000000001d5dc       0x40 c:/program files/microchip/xc32/v4.45/bin/bin/../../lib/gcc/pic32c/8.3.1/../../../../pic32c/lib/thumb/v7e-m+fp/hard\libpic32c.a(pic32_data_init_decompress.o)

.debug_abbrev   0x0000000000000000     0x405a
 .debug_abbrev  0x0000000000000000       0xa0 build/kf_freertos_fpga/production/_ext/1420773124/serial.o
 .debug_abbrev  0x00000000000000a0      0x172 build/kf_freertos_fpga/production/_ext/1420773124/trace.o
 .debug_abbrev  0x0000000000000212      0x429 build/kf_freertos_fpga/production/_ext/101992513/drv_i3c.o
 .debug_abbrev  0x000000000000063b      0x23a build/kf_freertos_fpga/production/_ext/101992513/drv_i3c_config.o
 .debug_abbrev  0x0000000000000875      0x297 build/kf_freertos_fpga/production/_ext/1886205328/i3c_ccc.o
 .debug_abbrev  0x0000000000000b0c      0x360 build/kf_freertos_fpga/production/_ext/1886205328/i3c_common.o
 .debug_abbrev  0x0000000000000e6c      0x169 build/kf_freertos_fpga/production/_ext/785111490/osal_freertos.o
 .debug_abbrev  0x0000000000000fd5      0x11b build/kf_freertos_fpga/production/_ext/868947740/plib_ec_reg_bank.o
 .debug_abbrev  0x00000000000010f0      0x1e9 build/kf_freertos_fpga/production/_ext/179210842/plib_ecia.o
 .debug_abbrev  0x00000000000012d9      0x1cf build/kf_freertos_fpga/production/_ext/179282931/plib_gpio.o
 .debug_abbrev  0x00000000000014a8      0x261 build/kf_freertos_fpga/production/_ext/825500651/plib_i3c.o
 .debug_abbrev  0x0000000000001709      0x22a build/kf_freertos_fpga/production/_ext/825500651/plib_i3c_private.o
 .debug_abbrev  0x0000000000001933      0x1f9 build/kf_freertos_fpga/production/_ext/179497222/plib_nvic.o
 .debug_abbrev  0x0000000000001b2c      0x15f build/kf_freertos_fpga/production/_ext/825492421/plib_pcr.o
 .debug_abbrev  0x0000000000001c8b       0xe5 build/kf_freertos_fpga/production/_ext/1732944825/uart_api.o
 .debug_abbrev  0x0000000000001d70      0x1d2 build/kf_freertos_fpga/production/_ext/1732944825/uart_perphl.o
 .debug_abbrev  0x0000000000001f42       0x49 build/kf_freertos_fpga/production/_ext/29258880/exceptions.o
 .debug_abbrev  0x0000000000001f8b      0x121 build/kf_freertos_fpga/production/_ext/29258880/freertos_hooks.o
 .debug_abbrev  0x00000000000020ac       0xe0 build/kf_freertos_fpga/production/_ext/29258880/initialization.o
 .debug_abbrev  0x000000000000218c       0xeb build/kf_freertos_fpga/production/_ext/29258880/interrupts.o
 .debug_abbrev  0x0000000000002277      0x195 build/kf_freertos_fpga/production/_ext/29258880/startup_xc32.o
 .debug_abbrev  0x000000000000240c       0xe7 build/kf_freertos_fpga/production/_ext/29258880/tasks.o
 .debug_abbrev  0x00000000000024f3      0x217 build/kf_freertos_fpga/production/_ext/246609638/port.o
 .debug_abbrev  0x000000000000270a      0x129 build/kf_freertos_fpga/production/_ext/1665200909/heap_1.o
 .debug_abbrev  0x0000000000002833      0x221 build/kf_freertos_fpga/production/_ext/404212886/queue.o
 .debug_abbrev  0x0000000000002a54      0x1ff build/kf_freertos_fpga/production/_ext/404212886/timers.o
 .debug_abbrev  0x0000000000002c53      0x100 build/kf_freertos_fpga/production/_ext/404212886/list.o
 .debug_abbrev  0x0000000000002d53      0x2ba build/kf_freertos_fpga/production/_ext/404212886/FreeRTOS_tasks.o
 .debug_abbrev  0x000000000000300d      0x296 build/kf_freertos_fpga/production/_ext/1521323865/test_pvt_xfer.o
 .debug_abbrev  0x00000000000032a3      0x280 build/kf_freertos_fpga/production/_ext/1521323865/tgt_test_pvt_xfer.o
 .debug_abbrev  0x0000000000003523      0x2d7 build/kf_freertos_fpga/production/_ext/1360937237/task1.o
 .debug_abbrev  0x00000000000037fa       0x48 build/kf_freertos_fpga/production/_ext/1360937237/main.o
 .debug_abbrev  0x0000000000003842      0x205 build/kf_freertos_fpga/production/_ext/1360937237/task2.o
 .debug_abbrev  0x0000000000003a47      0x116 build/kf_freertos_fpga/production/_ext/1360937237/task3.o
 .debug_abbrev  0x0000000000003b5d       0x44 c:/program files/microchip/xc32/v4.45/bin/bin/../../lib/gcc/pic32c/8.3.1/../../../../pic32c/lib/thumb/v7e-m+fp/hard\libpic32c.a(data_init.o)
 .debug_abbrev  0x0000000000003ba1       0xbb c:/program files/microchip/xc32/v4.45/bin/bin/../../lib/gcc/pic32c/8.3.1/../../../../pic32c/lib/thumb/v7e-m+fp/hard\libc-size-musl.a(memcpy.o)
 .debug_abbrev  0x0000000000003c5c       0xa2 c:/program files/microchip/xc32/v4.45/bin/bin/../../lib/gcc/pic32c/8.3.1/../../../../pic32c/lib/thumb/v7e-m+fp/hard\libc-size-musl.a(memset.o)
 .debug_abbrev  0x0000000000003cfe      0x133 c:/program files/microchip/xc32/v4.45/bin/bin/../../lib/gcc/pic32c/8.3.1/../../../../pic32c/lib/thumb/v7e-m+fp/hard\libc-musl.a(__libc_start_main.o)
 .debug_abbrev  0x0000000000003e31       0xd4 c:/program files/microchip/xc32/v4.45/bin/bin/../../lib/gcc/pic32c/8.3.1/../../../../pic32c/lib/thumb/v7e-m+fp/hard\libc-musl.a(libc.o)
 .debug_abbrev  0x0000000000003f05       0x62 c:/program files/microchip/xc32/v4.45/bin/bin/../../lib/gcc/pic32c/8.3.1/../../../../pic32c/lib/thumb/v7e-m+fp/hard\libc-musl.a(__environ.o)
 .debug_abbrev  0x0000000000003f67       0x69 c:/program files/microchip/xc32/v4.45/bin/bin/../../lib/gcc/pic32c/8.3.1/thumb/v7e-m+fp/hard\libgcc.a(_paritysi2.o)
 .debug_abbrev  0x0000000000003fd0       0x2e c:/program files/microchip/xc32/v4.45/bin/bin/../../lib/gcc/pic32c/8.3.1/../../../../pic32c/lib/thumb/v7e-m+fp/hard\libpic32c.a(pic32_data_init_clear.o)
 .debug_abbrev  0x0000000000003ffe       0x2e c:/program files/microchip/xc32/v4.45/bin/bin/../../lib/gcc/pic32c/8.3.1/../../../../pic32c/lib/thumb/v7e-m+fp/hard\libpic32c.a(pic32_data_init_copy.o)
 .debug_abbrev  0x000000000000402c       0x2e c:/program files/microchip/xc32/v4.45/bin/bin/../../lib/gcc/pic32c/8.3.1/../../../../pic32c/lib/thumb/v7e-m+fp/hard\libpic32c.a(pic32_data_init_decompress.o)

.debug_loc      0x0000000000000000     0xc16b
 .debug_loc     0x0000000000000000       0x94 build/kf_freertos_fpga/production/_ext/1420773124/serial.o
 .debug_loc     0x0000000000000094      0x249 build/kf_freertos_fpga/production/_ext/1420773124/trace.o
 .debug_loc     0x00000000000002dd     0x106f build/kf_freertos_fpga/production/_ext/101992513/drv_i3c.o
 .debug_loc     0x000000000000134c       0xd4 build/kf_freertos_fpga/production/_ext/101992513/drv_i3c_config.o
 .debug_loc     0x0000000000001420      0x6e8 build/kf_freertos_fpga/production/_ext/1886205328/i3c_ccc.o
 .debug_loc     0x0000000000001b08      0xbba build/kf_freertos_fpga/production/_ext/1886205328/i3c_common.o
 .debug_loc     0x00000000000026c2      0x4a4 build/kf_freertos_fpga/production/_ext/785111490/osal_freertos.o
 .debug_loc     0x0000000000002b66      0x8e0 build/kf_freertos_fpga/production/_ext/868947740/plib_ec_reg_bank.o
 .debug_loc     0x0000000000003446      0x504 build/kf_freertos_fpga/production/_ext/179210842/plib_ecia.o
 .debug_loc     0x000000000000394a      0xb44 build/kf_freertos_fpga/production/_ext/179282931/plib_gpio.o
 .debug_loc     0x000000000000448e      0xda8 build/kf_freertos_fpga/production/_ext/825500651/plib_i3c.o
 .debug_loc     0x0000000000005236     0x24e2 build/kf_freertos_fpga/production/_ext/825500651/plib_i3c_private.o
 .debug_loc     0x0000000000007718      0x23c build/kf_freertos_fpga/production/_ext/179497222/plib_nvic.o
 .debug_loc     0x0000000000007954      0x924 build/kf_freertos_fpga/production/_ext/825492421/plib_pcr.o
 .debug_loc     0x0000000000008278      0x1ec build/kf_freertos_fpga/production/_ext/1732944825/uart_api.o
 .debug_loc     0x0000000000008464      0x69c build/kf_freertos_fpga/production/_ext/1732944825/uart_perphl.o
 .debug_loc     0x0000000000008b00      0x108 build/kf_freertos_fpga/production/_ext/29258880/exceptions.o
 .debug_loc     0x0000000000008c08      0x148 build/kf_freertos_fpga/production/_ext/29258880/freertos_hooks.o
 .debug_loc     0x0000000000008d50       0x50 build/kf_freertos_fpga/production/_ext/29258880/initialization.o
 .debug_loc     0x0000000000008da0       0x2c build/kf_freertos_fpga/production/_ext/29258880/interrupts.o
 .debug_loc     0x0000000000008dcc       0x7c build/kf_freertos_fpga/production/_ext/29258880/startup_xc32.o
 .debug_loc     0x0000000000008e48       0xec build/kf_freertos_fpga/production/_ext/29258880/tasks.o
 .debug_loc     0x0000000000008f34      0x274 build/kf_freertos_fpga/production/_ext/246609638/port.o
 .debug_loc     0x00000000000091a8      0x134 build/kf_freertos_fpga/production/_ext/1665200909/heap_1.o
 .debug_loc     0x00000000000092dc      0x8a0 build/kf_freertos_fpga/production/_ext/404212886/queue.o
 .debug_loc     0x0000000000009b7c      0x718 build/kf_freertos_fpga/production/_ext/404212886/timers.o
 .debug_loc     0x000000000000a294      0x1cc build/kf_freertos_fpga/production/_ext/404212886/list.o
 .debug_loc     0x000000000000a460     0x108c build/kf_freertos_fpga/production/_ext/404212886/FreeRTOS_tasks.o
 .debug_loc     0x000000000000b4ec      0x282 build/kf_freertos_fpga/production/_ext/1521323865/test_pvt_xfer.o
 .debug_loc     0x000000000000b76e      0x320 build/kf_freertos_fpga/production/_ext/1521323865/tgt_test_pvt_xfer.o
 .debug_loc     0x000000000000ba8e      0x2a0 build/kf_freertos_fpga/production/_ext/1360937237/task1.o
 .debug_loc     0x000000000000bd2e       0x2c build/kf_freertos_fpga/production/_ext/1360937237/main.o
 .debug_loc     0x000000000000bd5a      0x110 build/kf_freertos_fpga/production/_ext/1360937237/task2.o
 .debug_loc     0x000000000000be6a       0x70 build/kf_freertos_fpga/production/_ext/1360937237/task3.o
 .debug_loc     0x000000000000beda       0x14 c:/program files/microchip/xc32/v4.45/bin/bin/../../lib/gcc/pic32c/8.3.1/../../../../pic32c/lib/thumb/v7e-m+fp/hard\libpic32c.a(data_init.o)
 .debug_loc     0x000000000000beee      0x10b c:/program files/microchip/xc32/v4.45/bin/bin/../../lib/gcc/pic32c/8.3.1/../../../../pic32c/lib/thumb/v7e-m+fp/hard\libc-size-musl.a(memcpy.o)
 .debug_loc     0x000000000000bff9       0x7d c:/program files/microchip/xc32/v4.45/bin/bin/../../lib/gcc/pic32c/8.3.1/../../../../pic32c/lib/thumb/v7e-m+fp/hard\libc-size-musl.a(memset.o)
 .debug_loc     0x000000000000c076       0x51 c:/program files/microchip/xc32/v4.45/bin/bin/../../lib/gcc/pic32c/8.3.1/../../../../pic32c/lib/thumb/v7e-m+fp/hard\libc-musl.a(__libc_start_main.o)
 .debug_loc     0x000000000000c0c7       0x7c c:/program files/microchip/xc32/v4.45/bin/bin/../../lib/gcc/pic32c/8.3.1/thumb/v7e-m+fp/hard\libgcc.a(_paritysi2.o)
 .debug_loc     0x000000000000c143       0x14 c:/program files/microchip/xc32/v4.45/bin/bin/../../lib/gcc/pic32c/8.3.1/../../../../pic32c/lib/thumb/v7e-m+fp/hard\libpic32c.a(pic32_data_init_copy.o)
 .debug_loc     0x000000000000c157       0x14 c:/program files/microchip/xc32/v4.45/bin/bin/../../lib/gcc/pic32c/8.3.1/../../../../pic32c/lib/thumb/v7e-m+fp/hard\libpic32c.a(pic32_data_init_decompress.o)

.debug_aranges  0x0000000000000000     0x1738
 .debug_aranges
                0x0000000000000000       0x28 build/kf_freertos_fpga/production/_ext/1420773124/serial.o
 .debug_aranges
                0x0000000000000028       0x50 build/kf_freertos_fpga/production/_ext/1420773124/trace.o
 .debug_aranges
                0x0000000000000078      0x1a8 build/kf_freertos_fpga/production/_ext/101992513/drv_i3c.o
 .debug_aranges
                0x0000000000000220       0x38 build/kf_freertos_fpga/production/_ext/101992513/drv_i3c_config.o
 .debug_aranges
                0x0000000000000258       0xc8 build/kf_freertos_fpga/production/_ext/1886205328/i3c_ccc.o
 .debug_aranges
                0x0000000000000320      0x138 build/kf_freertos_fpga/production/_ext/1886205328/i3c_common.o
 .debug_aranges
                0x0000000000000458       0x90 build/kf_freertos_fpga/production/_ext/785111490/osal_freertos.o
 .debug_aranges
                0x00000000000004e8      0x118 build/kf_freertos_fpga/production/_ext/868947740/plib_ec_reg_bank.o
 .debug_aranges
                0x0000000000000600       0x90 build/kf_freertos_fpga/production/_ext/179210842/plib_ecia.o
 .debug_aranges
                0x0000000000000690      0x118 build/kf_freertos_fpga/production/_ext/179282931/plib_gpio.o
 .debug_aranges
                0x00000000000007a8      0x178 build/kf_freertos_fpga/production/_ext/825500651/plib_i3c.o
 .debug_aranges
                0x0000000000000920      0x350 build/kf_freertos_fpga/production/_ext/825500651/plib_i3c_private.o
 .debug_aranges
                0x0000000000000c70       0x50 build/kf_freertos_fpga/production/_ext/179497222/plib_nvic.o
 .debug_aranges
                0x0000000000000cc0       0xf0 build/kf_freertos_fpga/production/_ext/825492421/plib_pcr.o
 .debug_aranges
                0x0000000000000db0       0x48 build/kf_freertos_fpga/production/_ext/1732944825/uart_api.o
 .debug_aranges
                0x0000000000000df8       0xc0 build/kf_freertos_fpga/production/_ext/1732944825/uart_perphl.o
 .debug_aranges
                0x0000000000000eb8       0x48 build/kf_freertos_fpga/production/_ext/29258880/exceptions.o
 .debug_aranges
                0x0000000000000f00       0x40 build/kf_freertos_fpga/production/_ext/29258880/freertos_hooks.o
 .debug_aranges
                0x0000000000000f40       0x20 build/kf_freertos_fpga/production/_ext/29258880/initialization.o
 .debug_aranges
                0x0000000000000f60       0x28 build/kf_freertos_fpga/production/_ext/29258880/interrupts.o
 .debug_aranges
                0x0000000000000f88       0x30 build/kf_freertos_fpga/production/_ext/29258880/startup_xc32.o
 .debug_aranges
                0x0000000000000fb8       0x38 build/kf_freertos_fpga/production/_ext/29258880/tasks.o
 .debug_aranges
                0x0000000000000ff0       0x78 build/kf_freertos_fpga/production/_ext/246609638/port.o
 .debug_aranges
                0x0000000000001068       0x38 build/kf_freertos_fpga/production/_ext/1665200909/heap_1.o
 .debug_aranges
                0x00000000000010a0       0xf0 build/kf_freertos_fpga/production/_ext/404212886/queue.o
 .debug_aranges
                0x0000000000001190       0xd0 build/kf_freertos_fpga/production/_ext/404212886/timers.o
 .debug_aranges
                0x0000000000001260       0x40 build/kf_freertos_fpga/production/_ext/404212886/list.o
 .debug_aranges
                0x00000000000012a0      0x1b8 build/kf_freertos_fpga/production/_ext/404212886/FreeRTOS_tasks.o
 .debug_aranges
                0x0000000000001458       0x58 build/kf_freertos_fpga/production/_ext/1521323865/test_pvt_xfer.o
 .debug_aranges
                0x00000000000014b0       0x68 build/kf_freertos_fpga/production/_ext/1521323865/tgt_test_pvt_xfer.o
 .debug_aranges
                0x0000000000001518       0x60 build/kf_freertos_fpga/production/_ext/1360937237/task1.o
 .debug_aranges
                0x0000000000001578       0x20 build/kf_freertos_fpga/production/_ext/1360937237/main.o
 .debug_aranges
                0x0000000000001598       0x38 build/kf_freertos_fpga/production/_ext/1360937237/task2.o
 .debug_aranges
                0x00000000000015d0       0x28 build/kf_freertos_fpga/production/_ext/1360937237/task3.o
 .debug_aranges
                0x00000000000015f8       0x28 c:/program files/microchip/xc32/v4.45/bin/bin/../../lib/gcc/pic32c/8.3.1/../../../../pic32c/lib/thumb/v7e-m+fp/hard\libpic32c.a(data_init.o)
 .debug_aranges
                0x0000000000001620       0x20 c:/program files/microchip/xc32/v4.45/bin/bin/../../lib/gcc/pic32c/8.3.1/../../../../pic32c/lib/thumb/v7e-m+fp/hard\libc-size-musl.a(memcpy.o)
 .debug_aranges
                0x0000000000001640       0x20 c:/program files/microchip/xc32/v4.45/bin/bin/../../lib/gcc/pic32c/8.3.1/../../../../pic32c/lib/thumb/v7e-m+fp/hard\libc-size-musl.a(memset.o)
 .debug_aranges
                0x0000000000001660       0x28 c:/program files/microchip/xc32/v4.45/bin/bin/../../lib/gcc/pic32c/8.3.1/../../../../pic32c/lib/thumb/v7e-m+fp/hard\libc-musl.a(__libc_start_main.o)
 .debug_aranges
                0x0000000000001688       0x18 c:/program files/microchip/xc32/v4.45/bin/bin/../../lib/gcc/pic32c/8.3.1/../../../../pic32c/lib/thumb/v7e-m+fp/hard\libc-musl.a(libc.o)
 .debug_aranges
                0x00000000000016a0       0x18 c:/program files/microchip/xc32/v4.45/bin/bin/../../lib/gcc/pic32c/8.3.1/../../../../pic32c/lib/thumb/v7e-m+fp/hard\libc-musl.a(__environ.o)
 .debug_aranges
                0x00000000000016b8       0x20 c:/program files/microchip/xc32/v4.45/bin/bin/../../lib/gcc/pic32c/8.3.1/thumb/v7e-m+fp/hard\libgcc.a(_paritysi2.o)
 .debug_aranges
                0x00000000000016d8       0x20 c:/program files/microchip/xc32/v4.45/bin/bin/../../lib/gcc/pic32c/8.3.1/../../../../pic32c/lib/thumb/v7e-m+fp/hard\libpic32c.a(pic32_data_init_clear.o)
 .debug_aranges
                0x00000000000016f8       0x20 c:/program files/microchip/xc32/v4.45/bin/bin/../../lib/gcc/pic32c/8.3.1/../../../../pic32c/lib/thumb/v7e-m+fp/hard\libpic32c.a(pic32_data_init_copy.o)
 .debug_aranges
                0x0000000000001718       0x20 c:/program files/microchip/xc32/v4.45/bin/bin/../../lib/gcc/pic32c/8.3.1/../../../../pic32c/lib/thumb/v7e-m+fp/hard\libpic32c.a(pic32_data_init_decompress.o)

.debug_ranges   0x0000000000000000     0x1498
 .debug_ranges  0x0000000000000000       0x18 build/kf_freertos_fpga/production/_ext/1420773124/serial.o
 .debug_ranges  0x0000000000000018       0x58 build/kf_freertos_fpga/production/_ext/1420773124/trace.o
 .debug_ranges  0x0000000000000070      0x198 build/kf_freertos_fpga/production/_ext/101992513/drv_i3c.o
 .debug_ranges  0x0000000000000208       0x28 build/kf_freertos_fpga/production/_ext/101992513/drv_i3c_config.o
 .debug_ranges  0x0000000000000230       0xb8 build/kf_freertos_fpga/production/_ext/1886205328/i3c_ccc.o
 .debug_ranges  0x00000000000002e8      0x128 build/kf_freertos_fpga/production/_ext/1886205328/i3c_common.o
 .debug_ranges  0x0000000000000410       0x80 build/kf_freertos_fpga/production/_ext/785111490/osal_freertos.o
 .debug_ranges  0x0000000000000490      0x108 build/kf_freertos_fpga/production/_ext/868947740/plib_ec_reg_bank.o
 .debug_ranges  0x0000000000000598       0x80 build/kf_freertos_fpga/production/_ext/179210842/plib_ecia.o
 .debug_ranges  0x0000000000000618      0x108 build/kf_freertos_fpga/production/_ext/179282931/plib_gpio.o
 .debug_ranges  0x0000000000000720      0x168 build/kf_freertos_fpga/production/_ext/825500651/plib_i3c.o
 .debug_ranges  0x0000000000000888      0x340 build/kf_freertos_fpga/production/_ext/825500651/plib_i3c_private.o
 .debug_ranges  0x0000000000000bc8       0x40 build/kf_freertos_fpga/production/_ext/179497222/plib_nvic.o
 .debug_ranges  0x0000000000000c08       0xe0 build/kf_freertos_fpga/production/_ext/825492421/plib_pcr.o
 .debug_ranges  0x0000000000000ce8       0x38 build/kf_freertos_fpga/production/_ext/1732944825/uart_api.o
 .debug_ranges  0x0000000000000d20       0xb0 build/kf_freertos_fpga/production/_ext/1732944825/uart_perphl.o
 .debug_ranges  0x0000000000000dd0       0x38 build/kf_freertos_fpga/production/_ext/29258880/exceptions.o
 .debug_ranges  0x0000000000000e08       0x30 build/kf_freertos_fpga/production/_ext/29258880/freertos_hooks.o
 .debug_ranges  0x0000000000000e38       0x10 build/kf_freertos_fpga/production/_ext/29258880/initialization.o
 .debug_ranges  0x0000000000000e48       0x18 build/kf_freertos_fpga/production/_ext/29258880/interrupts.o
 .debug_ranges  0x0000000000000e60       0x20 build/kf_freertos_fpga/production/_ext/29258880/startup_xc32.o
 .debug_ranges  0x0000000000000e80       0x28 build/kf_freertos_fpga/production/_ext/29258880/tasks.o
 .debug_ranges  0x0000000000000ea8       0x68 build/kf_freertos_fpga/production/_ext/246609638/port.o
 .debug_ranges  0x0000000000000f10       0x28 build/kf_freertos_fpga/production/_ext/1665200909/heap_1.o
 .debug_ranges  0x0000000000000f38       0xe0 build/kf_freertos_fpga/production/_ext/404212886/queue.o
 .debug_ranges  0x0000000000001018       0xc0 build/kf_freertos_fpga/production/_ext/404212886/timers.o
 .debug_ranges  0x00000000000010d8       0x30 build/kf_freertos_fpga/production/_ext/404212886/list.o
 .debug_ranges  0x0000000000001108      0x1a8 build/kf_freertos_fpga/production/_ext/404212886/FreeRTOS_tasks.o
 .debug_ranges  0x00000000000012b0       0x48 build/kf_freertos_fpga/production/_ext/1521323865/test_pvt_xfer.o
 .debug_ranges  0x00000000000012f8       0x58 build/kf_freertos_fpga/production/_ext/1521323865/tgt_test_pvt_xfer.o
 .debug_ranges  0x0000000000001350       0x50 build/kf_freertos_fpga/production/_ext/1360937237/task1.o
 .debug_ranges  0x00000000000013a0       0x10 build/kf_freertos_fpga/production/_ext/1360937237/main.o
 .debug_ranges  0x00000000000013b0       0x28 build/kf_freertos_fpga/production/_ext/1360937237/task2.o
 .debug_ranges  0x00000000000013d8       0x18 build/kf_freertos_fpga/production/_ext/1360937237/task3.o
 .debug_ranges  0x00000000000013f0       0x18 c:/program files/microchip/xc32/v4.45/bin/bin/../../lib/gcc/pic32c/8.3.1/../../../../pic32c/lib/thumb/v7e-m+fp/hard\libpic32c.a(data_init.o)
 .debug_ranges  0x0000000000001408       0x10 c:/program files/microchip/xc32/v4.45/bin/bin/../../lib/gcc/pic32c/8.3.1/../../../../pic32c/lib/thumb/v7e-m+fp/hard\libc-size-musl.a(memcpy.o)
 .debug_ranges  0x0000000000001418       0x10 c:/program files/microchip/xc32/v4.45/bin/bin/../../lib/gcc/pic32c/8.3.1/../../../../pic32c/lib/thumb/v7e-m+fp/hard\libc-size-musl.a(memset.o)
 .debug_ranges  0x0000000000001428       0x40 c:/program files/microchip/xc32/v4.45/bin/bin/../../lib/gcc/pic32c/8.3.1/../../../../pic32c/lib/thumb/v7e-m+fp/hard\libc-musl.a(__libc_start_main.o)
 .debug_ranges  0x0000000000001468       0x10 c:/program files/microchip/xc32/v4.45/bin/bin/../../lib/gcc/pic32c/8.3.1/../../../../pic32c/lib/thumb/v7e-m+fp/hard\libpic32c.a(pic32_data_init_clear.o)
 .debug_ranges  0x0000000000001478       0x10 c:/program files/microchip/xc32/v4.45/bin/bin/../../lib/gcc/pic32c/8.3.1/../../../../pic32c/lib/thumb/v7e-m+fp/hard\libpic32c.a(pic32_data_init_copy.o)
 .debug_ranges  0x0000000000001488       0x10 c:/program files/microchip/xc32/v4.45/bin/bin/../../lib/gcc/pic32c/8.3.1/../../../../pic32c/lib/thumb/v7e-m+fp/hard\libpic32c.a(pic32_data_init_decompress.o)

.debug_line     0x0000000000000000     0xb02b
 .debug_line    0x0000000000000000      0x10e build/kf_freertos_fpga/production/_ext/1420773124/serial.o
 .debug_line    0x000000000000010e      0x28c build/kf_freertos_fpga/production/_ext/1420773124/trace.o
 .debug_line    0x000000000000039a     0x16e3 build/kf_freertos_fpga/production/_ext/101992513/drv_i3c.o
 .debug_line    0x0000000000001a7d      0x3c3 build/kf_freertos_fpga/production/_ext/101992513/drv_i3c_config.o
 .debug_line    0x0000000000001e40      0x814 build/kf_freertos_fpga/production/_ext/1886205328/i3c_ccc.o
 .debug_line    0x0000000000002654      0xa82 build/kf_freertos_fpga/production/_ext/1886205328/i3c_common.o
 .debug_line    0x00000000000030d6      0x388 build/kf_freertos_fpga/production/_ext/785111490/osal_freertos.o
 .debug_line    0x000000000000345e      0x396 build/kf_freertos_fpga/production/_ext/868947740/plib_ec_reg_bank.o
 .debug_line    0x00000000000037f4      0x3b2 build/kf_freertos_fpga/production/_ext/179210842/plib_ecia.o
 .debug_line    0x0000000000003ba6      0x5bf build/kf_freertos_fpga/production/_ext/179282931/plib_gpio.o
 .debug_line    0x0000000000004165      0x82d build/kf_freertos_fpga/production/_ext/825500651/plib_i3c.o
 .debug_line    0x0000000000004992      0xfbb build/kf_freertos_fpga/production/_ext/825500651/plib_i3c_private.o
 .debug_line    0x000000000000594d      0x296 build/kf_freertos_fpga/production/_ext/179497222/plib_nvic.o
 .debug_line    0x0000000000005be3      0x44f build/kf_freertos_fpga/production/_ext/825492421/plib_pcr.o
 .debug_line    0x0000000000006032      0x1dc build/kf_freertos_fpga/production/_ext/1732944825/uart_api.o
 .debug_line    0x000000000000620e      0x5fb build/kf_freertos_fpga/production/_ext/1732944825/uart_perphl.o
 .debug_line    0x0000000000006809       0xc9 build/kf_freertos_fpga/production/_ext/29258880/exceptions.o
 .debug_line    0x00000000000068d2      0x1ba build/kf_freertos_fpga/production/_ext/29258880/freertos_hooks.o
 .debug_line    0x0000000000006a8c      0x12a build/kf_freertos_fpga/production/_ext/29258880/initialization.o
 .debug_line    0x0000000000006bb6       0xd8 build/kf_freertos_fpga/production/_ext/29258880/interrupts.o
 .debug_line    0x0000000000006c8e      0x16e build/kf_freertos_fpga/production/_ext/29258880/startup_xc32.o
 .debug_line    0x0000000000006dfc      0x13a build/kf_freertos_fpga/production/_ext/29258880/tasks.o
 .debug_line    0x0000000000006f36      0x2e1 build/kf_freertos_fpga/production/_ext/246609638/port.o
 .debug_line    0x0000000000007217      0x156 build/kf_freertos_fpga/production/_ext/1665200909/heap_1.o
 .debug_line    0x000000000000736d      0x9c8 build/kf_freertos_fpga/production/_ext/404212886/queue.o
 .debug_line    0x0000000000007d35      0x5b1 build/kf_freertos_fpga/production/_ext/404212886/timers.o
 .debug_line    0x00000000000082e6      0x232 build/kf_freertos_fpga/production/_ext/404212886/list.o
 .debug_line    0x0000000000008518      0xf50 build/kf_freertos_fpga/production/_ext/404212886/FreeRTOS_tasks.o
 .debug_line    0x0000000000009468      0x50f build/kf_freertos_fpga/production/_ext/1521323865/test_pvt_xfer.o
 .debug_line    0x0000000000009977      0x35d build/kf_freertos_fpga/production/_ext/1521323865/tgt_test_pvt_xfer.o
 .debug_line    0x0000000000009cd4      0x5cc build/kf_freertos_fpga/production/_ext/1360937237/task1.o
 .debug_line    0x000000000000a2a0       0x45 build/kf_freertos_fpga/production/_ext/1360937237/main.o
 .debug_line    0x000000000000a2e5      0x3d2 build/kf_freertos_fpga/production/_ext/1360937237/task2.o
 .debug_line    0x000000000000a6b7      0x13b build/kf_freertos_fpga/production/_ext/1360937237/task3.o
 .debug_line    0x000000000000a7f2       0x92 c:/program files/microchip/xc32/v4.45/bin/bin/../../lib/gcc/pic32c/8.3.1/../../../../pic32c/lib/thumb/v7e-m+fp/hard\libpic32c.a(data_init.o)
 .debug_line    0x000000000000a884       0xf9 c:/program files/microchip/xc32/v4.45/bin/bin/../../lib/gcc/pic32c/8.3.1/../../../../pic32c/lib/thumb/v7e-m+fp/hard\libc-size-musl.a(memcpy.o)
 .debug_line    0x000000000000a97d       0xe3 c:/program files/microchip/xc32/v4.45/bin/bin/../../lib/gcc/pic32c/8.3.1/../../../../pic32c/lib/thumb/v7e-m+fp/hard\libc-size-musl.a(memset.o)
 .debug_line    0x000000000000aa60      0x1c7 c:/program files/microchip/xc32/v4.45/bin/bin/../../lib/gcc/pic32c/8.3.1/../../../../pic32c/lib/thumb/v7e-m+fp/hard\libc-musl.a(__libc_start_main.o)
 .debug_line    0x000000000000ac27       0xb5 c:/program files/microchip/xc32/v4.45/bin/bin/../../lib/gcc/pic32c/8.3.1/../../../../pic32c/lib/thumb/v7e-m+fp/hard\libc-musl.a(libc.o)
 .debug_line    0x000000000000acdc       0xfb c:/program files/microchip/xc32/v4.45/bin/bin/../../lib/gcc/pic32c/8.3.1/../../../../pic32c/lib/thumb/v7e-m+fp/hard\libc-musl.a(__environ.o)
 .debug_line    0x000000000000add7       0xbc c:/program files/microchip/xc32/v4.45/bin/bin/../../lib/gcc/pic32c/8.3.1/thumb/v7e-m+fp/hard\libgcc.a(_paritysi2.o)
 .debug_line    0x000000000000ae93       0x72 c:/program files/microchip/xc32/v4.45/bin/bin/../../lib/gcc/pic32c/8.3.1/../../../../pic32c/lib/thumb/v7e-m+fp/hard\libpic32c.a(pic32_data_init_clear.o)
 .debug_line    0x000000000000af05       0x7a c:/program files/microchip/xc32/v4.45/bin/bin/../../lib/gcc/pic32c/8.3.1/../../../../pic32c/lib/thumb/v7e-m+fp/hard\libpic32c.a(pic32_data_init_copy.o)
 .debug_line    0x000000000000af7f       0xac c:/program files/microchip/xc32/v4.45/bin/bin/../../lib/gcc/pic32c/8.3.1/../../../../pic32c/lib/thumb/v7e-m+fp/hard\libpic32c.a(pic32_data_init_decompress.o)

.debug_str      0x0000000000000000    0x19b1e
 .debug_str     0x0000000000000000      0x3af build/kf_freertos_fpga/production/_ext/1420773124/serial.o
 .debug_str     0x00000000000003af      0x317 build/kf_freertos_fpga/production/_ext/1420773124/trace.o
 .debug_str     0x00000000000006c6     0x22eb build/kf_freertos_fpga/production/_ext/101992513/drv_i3c.o
 .debug_str     0x00000000000029b1     0x14ee build/kf_freertos_fpga/production/_ext/101992513/drv_i3c_config.o
 .debug_str     0x0000000000003e9f      0xf47 build/kf_freertos_fpga/production/_ext/1886205328/i3c_ccc.o
 .debug_str     0x0000000000004de6      0xedc build/kf_freertos_fpga/production/_ext/1886205328/i3c_common.o
 .debug_str     0x0000000000005cc2      0x524 build/kf_freertos_fpga/production/_ext/785111490/osal_freertos.o
 .debug_str     0x00000000000061e6      0x994 build/kf_freertos_fpga/production/_ext/868947740/plib_ec_reg_bank.o
 .debug_str     0x0000000000006b7a     0x2298 build/kf_freertos_fpga/production/_ext/179210842/plib_ecia.o
 .debug_str     0x0000000000008e12     0x11a7 build/kf_freertos_fpga/production/_ext/179282931/plib_gpio.o
 .debug_str     0x0000000000009fb9     0x23eb build/kf_freertos_fpga/production/_ext/825500651/plib_i3c.o
 .debug_str     0x000000000000c3a4     0x1701 build/kf_freertos_fpga/production/_ext/825500651/plib_i3c_private.o
 .debug_str     0x000000000000daa5      0x8a0 build/kf_freertos_fpga/production/_ext/179497222/plib_nvic.o
 .debug_str     0x000000000000e345     0x1132 build/kf_freertos_fpga/production/_ext/825492421/plib_pcr.o
 .debug_str     0x000000000000f477      0x472 build/kf_freertos_fpga/production/_ext/1732944825/uart_api.o
 .debug_str     0x000000000000f8e9      0x79e build/kf_freertos_fpga/production/_ext/1732944825/uart_perphl.o
 .debug_str     0x0000000000010087      0x2d9 build/kf_freertos_fpga/production/_ext/29258880/exceptions.o
 .debug_str     0x0000000000010360      0x338 build/kf_freertos_fpga/production/_ext/29258880/freertos_hooks.o
 .debug_str     0x0000000000010698      0x2b5 build/kf_freertos_fpga/production/_ext/29258880/initialization.o
 .debug_str     0x000000000001094d     0x104a build/kf_freertos_fpga/production/_ext/29258880/interrupts.o
 .debug_str     0x0000000000011997      0x345 build/kf_freertos_fpga/production/_ext/29258880/startup_xc32.o
 .debug_str     0x0000000000011cdc      0x2f7 build/kf_freertos_fpga/production/_ext/29258880/tasks.o
 .debug_str     0x0000000000011fd3      0x41b build/kf_freertos_fpga/production/_ext/246609638/port.o
 .debug_str     0x00000000000123ee      0x31e build/kf_freertos_fpga/production/_ext/1665200909/heap_1.o
 .debug_str     0x000000000001270c      0x909 build/kf_freertos_fpga/production/_ext/404212886/queue.o
 .debug_str     0x0000000000013015      0x80a build/kf_freertos_fpga/production/_ext/404212886/timers.o
 .debug_str     0x000000000001381f      0x39e build/kf_freertos_fpga/production/_ext/404212886/list.o
 .debug_str     0x0000000000013bbd      0xf72 build/kf_freertos_fpga/production/_ext/404212886/FreeRTOS_tasks.o
 .debug_str     0x0000000000014b2f     0x1031 build/kf_freertos_fpga/production/_ext/1521323865/test_pvt_xfer.o
 .debug_str     0x0000000000015b60      0x9ad build/kf_freertos_fpga/production/_ext/1521323865/tgt_test_pvt_xfer.o
 .debug_str     0x000000000001650d      0xec0 build/kf_freertos_fpga/production/_ext/1360937237/task1.o
 .debug_str     0x00000000000173cd      0x245 build/kf_freertos_fpga/production/_ext/1360937237/main.o
 .debug_str     0x0000000000017612      0x80d build/kf_freertos_fpga/production/_ext/1360937237/task2.o
 .debug_str     0x0000000000017e1f      0x559 build/kf_freertos_fpga/production/_ext/1360937237/task3.o
 .debug_str     0x0000000000018378      0x1f5 c:/program files/microchip/xc32/v4.45/bin/bin/../../lib/gcc/pic32c/8.3.1/../../../../pic32c/lib/thumb/v7e-m+fp/hard\libpic32c.a(data_init.o)
 .debug_str     0x000000000001856d      0x22f c:/program files/microchip/xc32/v4.45/bin/bin/../../lib/gcc/pic32c/8.3.1/../../../../pic32c/lib/thumb/v7e-m+fp/hard\libc-size-musl.a(memcpy.o)
 .debug_str     0x000000000001879c      0x21b c:/program files/microchip/xc32/v4.45/bin/bin/../../lib/gcc/pic32c/8.3.1/../../../../pic32c/lib/thumb/v7e-m+fp/hard\libc-size-musl.a(memset.o)
 .debug_str     0x00000000000189b7      0x3d4 c:/program files/microchip/xc32/v4.45/bin/bin/../../lib/gcc/pic32c/8.3.1/../../../../pic32c/lib/thumb/v7e-m+fp/hard\libc-musl.a(__libc_start_main.o)
 .debug_str     0x0000000000018d8b      0x33f c:/program files/microchip/xc32/v4.45/bin/bin/../../lib/gcc/pic32c/8.3.1/../../../../pic32c/lib/thumb/v7e-m+fp/hard\libc-musl.a(libc.o)
 .debug_str     0x00000000000190ca      0x23f c:/program files/microchip/xc32/v4.45/bin/bin/../../lib/gcc/pic32c/8.3.1/../../../../pic32c/lib/thumb/v7e-m+fp/hard\libc-musl.a(__environ.o)
 .debug_str     0x0000000000019309      0x270 c:/program files/microchip/xc32/v4.45/bin/bin/../../lib/gcc/pic32c/8.3.1/thumb/v7e-m+fp/hard\libgcc.a(_paritysi2.o)
 .debug_str     0x0000000000019579      0x1df c:/program files/microchip/xc32/v4.45/bin/bin/../../lib/gcc/pic32c/8.3.1/../../../../pic32c/lib/thumb/v7e-m+fp/hard\libpic32c.a(pic32_data_init_clear.o)
 .debug_str     0x0000000000019758      0x1dd c:/program files/microchip/xc32/v4.45/bin/bin/../../lib/gcc/pic32c/8.3.1/../../../../pic32c/lib/thumb/v7e-m+fp/hard\libpic32c.a(pic32_data_init_copy.o)
 .debug_str     0x0000000000019935      0x1e9 c:/program files/microchip/xc32/v4.45/bin/bin/../../lib/gcc/pic32c/8.3.1/../../../../pic32c/lib/thumb/v7e-m+fp/hard\libpic32c.a(pic32_data_init_decompress.o)

.debug_frame    0x0000000000000000     0x5a10
 .debug_frame   0x0000000000000000       0x58 build/kf_freertos_fpga/production/_ext/1420773124/serial.o
 .debug_frame   0x0000000000000058      0x128 build/kf_freertos_fpga/production/_ext/1420773124/trace.o
 .debug_frame   0x0000000000000180      0x7a0 build/kf_freertos_fpga/production/_ext/101992513/drv_i3c.o
 .debug_frame   0x0000000000000920       0x88 build/kf_freertos_fpga/production/_ext/101992513/drv_i3c_config.o
 .debug_frame   0x00000000000009a8      0x328 build/kf_freertos_fpga/production/_ext/1886205328/i3c_ccc.o
 .debug_frame   0x0000000000000cd0      0x554 build/kf_freertos_fpga/production/_ext/1886205328/i3c_common.o
 .debug_frame   0x0000000000001224      0x228 build/kf_freertos_fpga/production/_ext/785111490/osal_freertos.o
 .debug_frame   0x000000000000144c      0x430 build/kf_freertos_fpga/production/_ext/868947740/plib_ec_reg_bank.o
 .debug_frame   0x000000000000187c      0x24c build/kf_freertos_fpga/production/_ext/179210842/plib_ecia.o
 .debug_frame   0x0000000000001ac8      0x500 build/kf_freertos_fpga/production/_ext/179282931/plib_gpio.o
 .debug_frame   0x0000000000001fc8      0x640 build/kf_freertos_fpga/production/_ext/825500651/plib_i3c.o
 .debug_frame   0x0000000000002608     0x102c build/kf_freertos_fpga/production/_ext/825500651/plib_i3c_private.o
 .debug_frame   0x0000000000003634      0x114 build/kf_freertos_fpga/production/_ext/179497222/plib_nvic.o
 .debug_frame   0x0000000000003748      0x418 build/kf_freertos_fpga/production/_ext/825492421/plib_pcr.o
 .debug_frame   0x0000000000003b60       0xf4 build/kf_freertos_fpga/production/_ext/1732944825/uart_api.o
 .debug_frame   0x0000000000003c54      0x308 build/kf_freertos_fpga/production/_ext/1732944825/uart_perphl.o
 .debug_frame   0x0000000000003f5c       0xa0 build/kf_freertos_fpga/production/_ext/29258880/exceptions.o
 .debug_frame   0x0000000000003ffc       0xac build/kf_freertos_fpga/production/_ext/29258880/freertos_hooks.o
 .debug_frame   0x00000000000040a8       0x34 build/kf_freertos_fpga/production/_ext/29258880/initialization.o
 .debug_frame   0x00000000000040dc       0x3c build/kf_freertos_fpga/production/_ext/29258880/interrupts.o
 .debug_frame   0x0000000000004118       0x60 build/kf_freertos_fpga/production/_ext/29258880/startup_xc32.o
 .debug_frame   0x0000000000004178       0x94 build/kf_freertos_fpga/production/_ext/29258880/tasks.o
 .debug_frame   0x000000000000420c      0x170 build/kf_freertos_fpga/production/_ext/246609638/port.o
 .debug_frame   0x000000000000437c       0x9c build/kf_freertos_fpga/production/_ext/1665200909/heap_1.o
 .debug_frame   0x0000000000004418      0x3ec build/kf_freertos_fpga/production/_ext/404212886/queue.o
 .debug_frame   0x0000000000004804      0x34c build/kf_freertos_fpga/production/_ext/404212886/timers.o
 .debug_frame   0x0000000000004b50       0xd8 build/kf_freertos_fpga/production/_ext/404212886/list.o
 .debug_frame   0x0000000000004c28      0x77c build/kf_freertos_fpga/production/_ext/404212886/FreeRTOS_tasks.o
 .debug_frame   0x00000000000053a4      0x13c build/kf_freertos_fpga/production/_ext/1521323865/test_pvt_xfer.o
 .debug_frame   0x00000000000054e0      0x178 build/kf_freertos_fpga/production/_ext/1521323865/tgt_test_pvt_xfer.o
 .debug_frame   0x0000000000005658      0x150 build/kf_freertos_fpga/production/_ext/1360937237/task1.o
 .debug_frame   0x00000000000057a8       0x2c build/kf_freertos_fpga/production/_ext/1360937237/main.o
 .debug_frame   0x00000000000057d4       0x94 build/kf_freertos_fpga/production/_ext/1360937237/task2.o
 .debug_frame   0x0000000000005868       0x4c build/kf_freertos_fpga/production/_ext/1360937237/task3.o
 .debug_frame   0x00000000000058b4       0x3c c:/program files/microchip/xc32/v4.45/bin/bin/../../lib/gcc/pic32c/8.3.1/../../../../pic32c/lib/thumb/v7e-m+fp/hard\libpic32c.a(data_init.o)
 .debug_frame   0x00000000000058f0       0x2c c:/program files/microchip/xc32/v4.45/bin/bin/../../lib/gcc/pic32c/8.3.1/../../../../pic32c/lib/thumb/v7e-m+fp/hard\libc-size-musl.a(memcpy.o)
 .debug_frame   0x000000000000591c       0x20 c:/program files/microchip/xc32/v4.45/bin/bin/../../lib/gcc/pic32c/8.3.1/../../../../pic32c/lib/thumb/v7e-m+fp/hard\libc-size-musl.a(memset.o)
 .debug_frame   0x000000000000593c       0x3c c:/program files/microchip/xc32/v4.45/bin/bin/../../lib/gcc/pic32c/8.3.1/../../../../pic32c/lib/thumb/v7e-m+fp/hard\libc-musl.a(__libc_start_main.o)
 .debug_frame   0x0000000000005978       0x20 c:/program files/microchip/xc32/v4.45/bin/bin/../../lib/gcc/pic32c/8.3.1/thumb/v7e-m+fp/hard\libgcc.a(_paritysi2.o)
 .debug_frame   0x0000000000005998       0x20 c:/program files/microchip/xc32/v4.45/bin/bin/../../lib/gcc/pic32c/8.3.1/../../../../pic32c/lib/thumb/v7e-m+fp/hard\libpic32c.a(pic32_data_init_clear.o)
 .debug_frame   0x00000000000059b8       0x28 c:/program files/microchip/xc32/v4.45/bin/bin/../../lib/gcc/pic32c/8.3.1/../../../../pic32c/lib/thumb/v7e-m+fp/hard\libpic32c.a(pic32_data_init_copy.o)
 .debug_frame   0x00000000000059e0       0x30 c:/program files/microchip/xc32/v4.45/bin/bin/../../lib/gcc/pic32c/8.3.1/../../../../pic32c/lib/thumb/v7e-m+fp/hard\libpic32c.a(pic32_data_init_decompress.o)

.note.GNU-stack
                0x0000000000000000        0x0
 .note.GNU-stack
                0x0000000000000000        0x0 c:/program files/microchip/xc32/v4.45/bin/bin/../../lib/gcc/pic32c/8.3.1/../../../../pic32c/lib/thumb/v7e-m+fp/hard\libc-size-musl.a(memcpy.o)
 .note.GNU-stack
                0x0000000000000000        0x0 c:/program files/microchip/xc32/v4.45/bin/bin/../../lib/gcc/pic32c/8.3.1/../../../../pic32c/lib/thumb/v7e-m+fp/hard\libc-size-musl.a(memset.o)
 .note.GNU-stack
                0x0000000000000000        0x0 c:/program files/microchip/xc32/v4.45/bin/bin/../../lib/gcc/pic32c/8.3.1/../../../../pic32c/lib/thumb/v7e-m+fp/hard\libc-musl.a(__libc_start_main.o)
 .note.GNU-stack
                0x0000000000000000        0x0 c:/program files/microchip/xc32/v4.45/bin/bin/../../lib/gcc/pic32c/8.3.1/../../../../pic32c/lib/thumb/v7e-m+fp/hard\libc-musl.a(libc.o)
 .note.GNU-stack
                0x0000000000000000        0x0 c:/program files/microchip/xc32/v4.45/bin/bin/../../lib/gcc/pic32c/8.3.1/../../../../pic32c/lib/thumb/v7e-m+fp/hard\libc-musl.a(__environ.o)

.stack          0x000000000011bf08      0x100
 .stack         0x000000000011bf08      0x100 stack

.bss.ucHeap%1   0x0000000000118000     0x2800
 .bss.ucHeap    0x0000000000118000     0x2800 build/kf_freertos_fpga/production/_ext/1665200909/heap_1.o

.bss.pending_xfer_ctxt%2
                0x000000000011a800      0x188
 .bss.pending_xfer_ctxt
                0x000000000011a800      0x188 build/kf_freertos_fpga/production/_ext/101992513/drv_i3c.o
                0x000000000011a800                pending_xfer_ctxt

.bss.tx_max%3   0x000000000011a988       0x80
 .bss.tx_max    0x000000000011a988       0x80 build/kf_freertos_fpga/production/_ext/1521323865/test_pvt_xfer.o
                0x000000000011a988                tx_max

.bss.pxReadyTasksLists%4
                0x000000000011aa08       0x64
 .bss.pxReadyTasksLists
                0x000000000011aa08       0x64 build/kf_freertos_fpga/production/_ext/404212886/FreeRTOS_tasks.o

.bss%5          0x000000000011aa6c       0x50
 .bss           0x000000000011aa6c       0x50 c:/program files/microchip/xc32/v4.45/bin/bin/../../lib/gcc/pic32c/8.3.1/../../../../pic32c/lib/thumb/v7e-m+fp/hard\libc-musl.a(libc.o)
                0x000000000011aa6c                __progname_full
                0x000000000011aa6c                program_invocation_name
                0x000000000011aa70                program_invocation_short_name
                0x000000000011aa70                __progname
                0x000000000011aa74                __sysinfo
                0x000000000011aa78                __hwcap
                0x000000000011aa7c                __libc

.bss%6          0x000000000011aabc       0x1c
 .bss           0x000000000011aabc       0x1c c:/program files/microchip/xc32/v4.45/bin/bin/../../lib/gcc/pic32c/8.3.1/thumb/v7e-m+fp/hard/crtbegin.o

.bss.I3C0_DEV%7
                0x000000000011aad8       0x14
 .bss.I3C0_DEV  0x000000000011aad8       0x14 build/kf_freertos_fpga/production/_ext/101992513/drv_i3c_config.o
                0x000000000011aad8                I3C0_DEV

.bss.I3C1_DEV%8
                0x000000000011aaec       0x14
 .bss.I3C1_DEV  0x000000000011aaec       0x14 build/kf_freertos_fpga/production/_ext/101992513/drv_i3c_config.o
                0x000000000011aaec                I3C1_DEV

.bss.xActiveTimerList1%9
                0x000000000011ab00       0x14
 .bss.xActiveTimerList1
                0x000000000011ab00       0x14 build/kf_freertos_fpga/production/_ext/404212886/timers.o

.bss.xActiveTimerList2%10
                0x000000000011ab14       0x14
 .bss.xActiveTimerList2
                0x000000000011ab14       0x14 build/kf_freertos_fpga/production/_ext/404212886/timers.o

.bss.xDelayedTaskList1%11
                0x000000000011ab28       0x14
 .bss.xDelayedTaskList1
                0x000000000011ab28       0x14 build/kf_freertos_fpga/production/_ext/404212886/FreeRTOS_tasks.o

.bss.xDelayedTaskList2%12
                0x000000000011ab3c       0x14
 .bss.xDelayedTaskList2
                0x000000000011ab3c       0x14 build/kf_freertos_fpga/production/_ext/404212886/FreeRTOS_tasks.o

.bss.xPendingReadyList%13
                0x000000000011ab50       0x14
 .bss.xPendingReadyList
                0x000000000011ab50       0x14 build/kf_freertos_fpga/production/_ext/404212886/FreeRTOS_tasks.o

.bss.xTasksWaitingTermination%14
                0x000000000011ab64       0x14
 .bss.xTasksWaitingTermination
                0x000000000011ab64       0x14 build/kf_freertos_fpga/production/_ext/404212886/FreeRTOS_tasks.o

.bss.xSuspendedTaskList%15
                0x000000000011ab78       0x14
 .bss.xSuspendedTaskList
                0x000000000011ab78       0x14 build/kf_freertos_fpga/production/_ext/404212886/FreeRTOS_tasks.o

.bss.I3CObj%16  0x000000000011ab8c       0x10
 .bss.I3CObj    0x000000000011ab8c       0x10 build/kf_freertos_fpga/production/_ext/825500651/plib_i3c.o

.bss.tgt0_cfg%17
                0x000000000011ab9c        0xc
 .bss.tgt0_cfg  0x000000000011ab9c        0xc build/kf_freertos_fpga/production/_ext/1521323865/tgt_test_pvt_xfer.o
                0x000000000011ab9c                tgt0_cfg

.bss.rx_buff%18
                0x000000000011aba8        0xa
 .bss.rx_buff   0x000000000011aba8        0xa build/kf_freertos_fpga/production/_ext/1521323865/tgt_test_pvt_xfer.o
                0x000000000011aba8                rx_buff

.bss.task1Context%19
                0x000000000011abb4        0x8
 .bss.task1Context
                0x000000000011abb4        0x8 build/kf_freertos_fpga/production/_ext/1360937237/task1.o
                0x000000000011abb4                task1Context

.bss.task2Data%20
                0x000000000011abbc        0x8
 .bss.task2Data
                0x000000000011abbc        0x8 build/kf_freertos_fpga/production/_ext/1360937237/task2.o
                0x000000000011abbc                task2Data

.bss.task2Context%21
                0x000000000011abc4        0x8
 .bss.task2Context
                0x000000000011abc4        0x8 build/kf_freertos_fpga/production/_ext/1360937237/task2.o
                0x000000000011abc4                task2Context

.bss.targets_ibi_enable_sts%22
                0x000000000011abcc        0x4
 .bss.targets_ibi_enable_sts
                0x000000000011abcc        0x4 build/kf_freertos_fpga/production/_ext/825500651/plib_i3c.o

.bss.i3c0Dev%23
                0x000000000011abd0        0x4
 .bss.i3c0Dev   0x000000000011abd0        0x4 build/kf_freertos_fpga/production/_ext/29258880/initialization.o
                0x000000000011abd0                i3c0Dev

.bss.i3c1Dev%24
                0x000000000011abd4        0x4
 .bss.i3c1Dev   0x000000000011abd4        0x4 build/kf_freertos_fpga/production/_ext/29258880/initialization.o
                0x000000000011abd4                i3c1Dev

.bss.xTASK1_Tasks%25
                0x000000000011abd8        0x4
 .bss.xTASK1_Tasks
                0x000000000011abd8        0x4 build/kf_freertos_fpga/production/_ext/29258880/tasks.o
                0x000000000011abd8                xTASK1_Tasks

.bss.xTASK2_Tasks%26
                0x000000000011abdc        0x4
 .bss.xTASK2_Tasks
                0x000000000011abdc        0x4 build/kf_freertos_fpga/production/_ext/29258880/tasks.o
                0x000000000011abdc                xTASK2_Tasks

.bss.xTASK3_Tasks%27
                0x000000000011abe0        0x4
 .bss.xTASK3_Tasks
                0x000000000011abe0        0x4 build/kf_freertos_fpga/production/_ext/29258880/tasks.o
                0x000000000011abe0                xTASK3_Tasks

.bss.xNextFreeByte%28
                0x000000000011abe4        0x4
 .bss.xNextFreeByte
                0x000000000011abe4        0x4 build/kf_freertos_fpga/production/_ext/1665200909/heap_1.o

.bss.pucAlignedHeap.6162%29
                0x000000000011abe8        0x4
 .bss.pucAlignedHeap.6162
                0x000000000011abe8        0x4 build/kf_freertos_fpga/production/_ext/1665200909/heap_1.o

.bss.pxCurrentTimerList%30
                0x000000000011abec        0x4
 .bss.pxCurrentTimerList
                0x000000000011abec        0x4 build/kf_freertos_fpga/production/_ext/404212886/timers.o

.bss.pxOverflowTimerList%31
                0x000000000011abf0        0x4
 .bss.pxOverflowTimerList
                0x000000000011abf0        0x4 build/kf_freertos_fpga/production/_ext/404212886/timers.o

.bss.xTimerQueue%32
                0x000000000011abf4        0x4
 .bss.xTimerQueue
                0x000000000011abf4        0x4 build/kf_freertos_fpga/production/_ext/404212886/timers.o

.bss.xTimerTaskHandle%33
                0x000000000011abf8        0x4
 .bss.xTimerTaskHandle
                0x000000000011abf8        0x4 build/kf_freertos_fpga/production/_ext/404212886/timers.o

.bss.xLastTime.6473%34
                0x000000000011abfc        0x4
 .bss.xLastTime.6473
                0x000000000011abfc        0x4 build/kf_freertos_fpga/production/_ext/404212886/timers.o

.bss.pxCurrentTCB%35
                0x000000000011ac00        0x4
 .bss.pxCurrentTCB
                0x000000000011ac00        0x4 build/kf_freertos_fpga/production/_ext/404212886/FreeRTOS_tasks.o
                0x000000000011ac00                pxCurrentTCB

.bss.pxDelayedTaskList%36
                0x000000000011ac04        0x4
 .bss.pxDelayedTaskList
                0x000000000011ac04        0x4 build/kf_freertos_fpga/production/_ext/404212886/FreeRTOS_tasks.o

.bss.pxOverflowDelayedTaskList%37
                0x000000000011ac08        0x4
 .bss.pxOverflowDelayedTaskList
                0x000000000011ac08        0x4 build/kf_freertos_fpga/production/_ext/404212886/FreeRTOS_tasks.o

.bss.uxDeletedTasksWaitingCleanUp%38
                0x000000000011ac0c        0x4
 .bss.uxDeletedTasksWaitingCleanUp
                0x000000000011ac0c        0x4 build/kf_freertos_fpga/production/_ext/404212886/FreeRTOS_tasks.o

.bss.uxCurrentNumberOfTasks%39
                0x000000000011ac10        0x4
 .bss.uxCurrentNumberOfTasks
                0x000000000011ac10        0x4 build/kf_freertos_fpga/production/_ext/404212886/FreeRTOS_tasks.o

.bss.xTickCount%40
                0x000000000011ac14        0x4
 .bss.xTickCount
                0x000000000011ac14        0x4 build/kf_freertos_fpga/production/_ext/404212886/FreeRTOS_tasks.o

.bss.uxTopReadyPriority%41
                0x000000000011ac18        0x4
 .bss.uxTopReadyPriority
                0x000000000011ac18        0x4 build/kf_freertos_fpga/production/_ext/404212886/FreeRTOS_tasks.o

.bss.xSchedulerRunning%42
                0x000000000011ac1c        0x4
 .bss.xSchedulerRunning
                0x000000000011ac1c        0x4 build/kf_freertos_fpga/production/_ext/404212886/FreeRTOS_tasks.o

.bss.xPendedTicks%43
                0x000000000011ac20        0x4
 .bss.xPendedTicks
                0x000000000011ac20        0x4 build/kf_freertos_fpga/production/_ext/404212886/FreeRTOS_tasks.o

.bss.xYieldPending%44
                0x000000000011ac24        0x4
 .bss.xYieldPending
                0x000000000011ac24        0x4 build/kf_freertos_fpga/production/_ext/404212886/FreeRTOS_tasks.o

.bss.xNumOfOverflows%45
                0x000000000011ac28        0x4
 .bss.xNumOfOverflows
                0x000000000011ac28        0x4 build/kf_freertos_fpga/production/_ext/404212886/FreeRTOS_tasks.o

.bss.uxTaskNumber%46
                0x000000000011ac2c        0x4
 .bss.uxTaskNumber
                0x000000000011ac2c        0x4 build/kf_freertos_fpga/production/_ext/404212886/FreeRTOS_tasks.o

.bss.xNextTaskUnblockTime%47
                0x000000000011ac30        0x4
 .bss.xNextTaskUnblockTime
                0x000000000011ac30        0x4 build/kf_freertos_fpga/production/_ext/404212886/FreeRTOS_tasks.o

.bss.xIdleTaskHandle%48
                0x000000000011ac34        0x4
 .bss.xIdleTaskHandle
                0x000000000011ac34        0x4 build/kf_freertos_fpga/production/_ext/404212886/FreeRTOS_tasks.o

.bss.uxSchedulerSuspended%49
                0x000000000011ac38        0x4
 .bss.uxSchedulerSuspended
                0x000000000011ac38        0x4 build/kf_freertos_fpga/production/_ext/404212886/FreeRTOS_tasks.o

.bss.uartMutexLock%50
                0x000000000011ac3c        0x4
 .bss.uartMutexLock
                0x000000000011ac3c        0x4 build/kf_freertos_fpga/production/_ext/1360937237/task1.o
                0x000000000011ac3c                uartMutexLock

.bss%51         0x000000000011ac40        0x4
 .bss           0x000000000011ac40        0x4 c:/program files/microchip/xc32/v4.45/bin/bin/../../lib/gcc/pic32c/8.3.1/../../../../pic32c/lib/thumb/v7e-m+fp/hard\libpic32c.a(data_init.o)

.bss%52         0x000000000011ac44        0x4
 .bss           0x000000000011ac44        0x4 c:/program files/microchip/xc32/v4.45/bin/bin/../../lib/gcc/pic32c/8.3.1/../../../../pic32c/lib/thumb/v7e-m+fp/hard\libc-musl.a(__environ.o)
                0x000000000011ac44                __environ
                0x000000000011ac44                environ
                0x000000000011ac44                ___environ
                0x000000000011ac44                _environ

.bss.task3Data%53
                0x000000000011ac48        0x1
 .bss.task3Data
                0x000000000011ac48        0x1 build/kf_freertos_fpga/production/_ext/1360937237/task3.o
                0x000000000011ac48                task3Data

.bss.tid%54     0x000000000011abb2        0x1
 .bss.tid       0x000000000011abb2        0x1 build/kf_freertos_fpga/production/_ext/825500651/plib_i3c.o

.data.I3C0_DATA%55
                0x000000000011ac50      0x7e8
 .data.I3C0_DATA
                0x000000000011ac50      0x7e8 build/kf_freertos_fpga/production/_ext/101992513/drv_i3c_config.o
                0x000000000011ac50                I3C0_DATA

.data.I3C1_DATA%56
                0x000000000011b438      0x7e8
 .data.I3C1_DATA
                0x000000000011b438      0x7e8 build/kf_freertos_fpga/production/_ext/101992513/drv_i3c_config.o
                0x000000000011b438                I3C1_DATA

.data.i3c0_device_list%57
                0x000000000011bc20       0x38
 .data.i3c0_device_list
                0x000000000011bc20       0x38 build/kf_freertos_fpga/production/_ext/101992513/drv_i3c_config.o
                0x000000000011bc20                i3c0_device_list

.data.I3C0_CFG%58
                0x000000000011bc58       0x20
 .data.I3C0_CFG
                0x000000000011bc58       0x20 build/kf_freertos_fpga/production/_ext/101992513/drv_i3c_config.o
                0x000000000011bc58                I3C0_CFG

.data.I3C1_CFG%59
                0x000000000011bc78       0x20
 .data.I3C1_CFG
                0x000000000011bc78       0x20 build/kf_freertos_fpga/production/_ext/101992513/drv_i3c_config.o
                0x000000000011bc78                I3C1_CFG

.data.i3c_tgt%60
                0x000000000011bc98       0x20
 .data.i3c_tgt  0x000000000011bc98       0x20 build/kf_freertos_fpga/production/_ext/101992513/drv_i3c_config.o
                0x000000000011bc98                i3c_tgt

.data.tgt0_cbs%61
                0x000000000011bcb8       0x18
 .data.tgt0_cbs
                0x000000000011bcb8       0x18 build/kf_freertos_fpga/production/_ext/1521323865/tgt_test_pvt_xfer.o
                0x000000000011bcb8                tgt0_cbs

.data.tx_buff%62
                0x000000000011bcd0       0x14
 .data.tx_buff  0x000000000011bcd0       0x14 build/kf_freertos_fpga/production/_ext/1521323865/tgt_test_pvt_xfer.o
                0x000000000011bcd0                tx_buff

.data.uxCriticalNesting%63
                0x000000000011ac4c        0x4
 .data.uxCriticalNesting
                0x000000000011ac4c        0x4 build/kf_freertos_fpga/production/_ext/246609638/port.o

.data.uxTopUsedPriority%64
                0x000000000011bce4        0x4
 .data.uxTopUsedPriority
                0x000000000011bce4        0x4 build/kf_freertos_fpga/production/_ext/404212886/FreeRTOS_tasks.o
                0x000000000011bce4                uxTopUsedPriority

.eh_frame%z1    0x0000000000000000        0x0
 .eh_frame      0x0000000000000000        0x0 c:/program files/microchip/xc32/v4.45/bin/bin/../../lib/gcc/pic32c/8.3.1/thumb/v7e-m+fp/hard/crtbegin.o

.rodata%65      0x00000000000b0370      0xa58
 .rodata        0x00000000000b0370      0xa58 build/kf_freertos_fpga/production/_ext/101992513/drv_i3c.o

.rodata%66      0x00000000000b0dc8      0x6c8
 .rodata        0x00000000000b0dc8      0x6c8 build/kf_freertos_fpga/production/_ext/1360937237/task1.o

.text.test_xfers_all%67
                0x00000000000b1490      0x440
 .text.test_xfers_all
                0x00000000000b1490      0x440 build/kf_freertos_fpga/production/_ext/1521323865/test_pvt_xfer.o
                0x00000000000b1490                test_xfers_all

.text._drv_i3c_xfers%68
                0x00000000000b18d0      0x418
 .text._drv_i3c_xfers
                0x00000000000b18d0      0x418 build/kf_freertos_fpga/production/_ext/101992513/drv_i3c.o

.text.DRV_I3C_do_DAA%69
                0x00000000000b1ce8      0x344
 .text.DRV_I3C_do_DAA
                0x00000000000b1ce8      0x344 build/kf_freertos_fpga/production/_ext/101992513/drv_i3c.o
                0x00000000000b1ce8                DRV_I3C_do_DAA

.dinit%70       0x00000000000b202c      0x2e0
 .dinit         0x00000000000b202c      0x2e0 data_init

.rodata%71      0x00000000000b230c      0x2ac
 .rodata        0x00000000000b230c      0x2ac build/kf_freertos_fpga/production/_ext/1886205328/i3c_common.o

.text.DRV_I3C_Init%72
                0x00000000000b25b8      0x268
 .text.DRV_I3C_Init
                0x00000000000b25b8      0x268 build/kf_freertos_fpga/production/_ext/101992513/drv_i3c.o
                0x00000000000b25b8                DRV_I3C_Init

.text._drv_i3c_isr_target%73
                0x00000000000b2820      0x244
 .text._drv_i3c_isr_target
                0x00000000000b2820      0x244 build/kf_freertos_fpga/production/_ext/101992513/drv_i3c.o

.text._drv_i3c_isr_xfers%74
                0x00000000000b2a64      0x238
 .text._drv_i3c_isr_xfers
                0x00000000000b2a64      0x238 build/kf_freertos_fpga/production/_ext/101992513/drv_i3c.o

.text._drv_i3c_CCC%75
                0x00000000000b2c9c      0x218
 .text._drv_i3c_CCC
                0x00000000000b2c9c      0x218 build/kf_freertos_fpga/production/_ext/101992513/drv_i3c.o

.text.xTaskIncrementTick%76
                0x00000000000b2eb4      0x20c
 .text.xTaskIncrementTick
                0x00000000000b2eb4      0x20c build/kf_freertos_fpga/production/_ext/404212886/FreeRTOS_tasks.o
                0x00000000000b2eb4                xTaskIncrementTick

.text._drv_i3c_isr_target_xfers%77
                0x00000000000b30c0      0x1fc
 .text._drv_i3c_isr_target_xfers
                0x00000000000b30c0      0x1fc build/kf_freertos_fpga/production/_ext/101992513/drv_i3c.o

.text.DRV_I3C_target_ibi_raise%78
                0x00000000000b32bc      0x1d8
 .text.DRV_I3C_target_ibi_raise
                0x00000000000b32bc      0x1d8 build/kf_freertos_fpga/production/_ext/101992513/drv_i3c.o
                0x00000000000b32bc                DRV_I3C_target_ibi_raise

.text.xTaskResumeAll%79
                0x00000000000b3494      0x1d8
 .text.xTaskResumeAll
                0x00000000000b3494      0x1d8 build/kf_freertos_fpga/production/_ext/404212886/FreeRTOS_tasks.o
                0x00000000000b3494                xTaskResumeAll

.text._drv_i3c_ibi_isr%80
                0x00000000000b366c      0x1b8
 .text._drv_i3c_ibi_isr
                0x00000000000b366c      0x1b8 build/kf_freertos_fpga/production/_ext/101992513/drv_i3c.o

.text.i3c_bus_init%81
                0x00000000000b3824      0x1b8
 .text.i3c_bus_init
                0x00000000000b3824      0x1b8 build/kf_freertos_fpga/production/_ext/1886205328/i3c_common.o
                0x00000000000b3824                i3c_bus_init

.text.xQueueSemaphoreTake%82
                0x00000000000b39dc      0x190
 .text.xQueueSemaphoreTake
                0x00000000000b39dc      0x190 build/kf_freertos_fpga/production/_ext/404212886/queue.o
                0x00000000000b39dc                xQueueSemaphoreTake

.text.xTaskRemoveFromEventList%83
                0x00000000000b3b6c      0x190
 .text.xTaskRemoveFromEventList
                0x00000000000b3b6c      0x190 build/kf_freertos_fpga/production/_ext/404212886/FreeRTOS_tasks.o
                0x00000000000b3b6c                xTaskRemoveFromEventList

.text.mini_vsnprintf%84
                0x00000000000b3cfc      0x17e
 .text.mini_vsnprintf
                0x00000000000b3cfc      0x17e build/kf_freertos_fpga/production/_ext/1420773124/trace.o
                0x00000000000b3cfc                mini_vsnprintf

.text.DRV_I3C_Xfers%85
                0x00000000000b3e7c      0x174
 .text.DRV_I3C_Xfers
                0x00000000000b3e7c      0x174 build/kf_freertos_fpga/production/_ext/101992513/drv_i3c.o
                0x00000000000b3e7c                DRV_I3C_Xfers

.text.uart_protocol_init%86
                0x00000000000b3ff0      0x170
 .text.uart_protocol_init
                0x00000000000b3ff0      0x170 build/kf_freertos_fpga/production/_ext/1732944825/uart_api.o
                0x00000000000b3ff0                uart_protocol_init

.text.DRV_I3C_attach_device%87
                0x00000000000b4160      0x15c
 .text.DRV_I3C_attach_device
                0x00000000000b4160      0x15c build/kf_freertos_fpga/production/_ext/101992513/drv_i3c.o
                0x00000000000b4160                DRV_I3C_attach_device

.text.prvProcessReceivedCommands%88
                0x00000000000b42bc      0x15c
 .text.prvProcessReceivedCommands
                0x00000000000b42bc      0x15c build/kf_freertos_fpga/production/_ext/404212886/timers.o

.text.xQueueGenericSend%89
                0x00000000000b4418      0x154
 .text.xQueueGenericSend
                0x00000000000b4418      0x154 build/kf_freertos_fpga/production/_ext/404212886/queue.o
                0x00000000000b4418                xQueueGenericSend

.text.xQueueReceive%90
                0x00000000000b456c      0x144
 .text.xQueueReceive
                0x00000000000b456c      0x144 build/kf_freertos_fpga/production/_ext/404212886/queue.o
                0x00000000000b456c                xQueueReceive

.text.p_uart_line_status_reg_get%91
                0x00000000000b46b0      0x140
 .text.p_uart_line_status_reg_get
                0x00000000000b46b0      0x140 build/kf_freertos_fpga/production/_ext/1732944825/uart_perphl.o
                0x00000000000b46b0                p_uart_line_status_reg_get

.text.xTaskPriorityInherit%92
                0x00000000000b47f0      0x13c
 .text.xTaskPriorityInherit
                0x00000000000b47f0      0x13c build/kf_freertos_fpga/production/_ext/404212886/FreeRTOS_tasks.o
                0x00000000000b47f0                xTaskPriorityInherit

.text.i3c_mec5_tgt_wka_code%93
                0x00000000000b492c      0x138
 .text.i3c_mec5_tgt_wka_code
                0x00000000000b492c      0x138 build/kf_freertos_fpga/production/_ext/101992513/drv_i3c.o
                0x00000000000b492c                i3c_mec5_tgt_wka_code

.text.vTaskPriorityDisinheritAfterTimeout%94
                0x00000000000b4a64      0x12c
 .text.vTaskPriorityDisinheritAfterTimeout
                0x00000000000b4a64      0x12c build/kf_freertos_fpga/production/_ext/404212886/FreeRTOS_tasks.o
                0x00000000000b4a64                vTaskPriorityDisinheritAfterTimeout

.text.prvAddNewTaskToReadyList%95
                0x00000000000b4b90      0x124
 .text.prvAddNewTaskToReadyList
                0x00000000000b4b90      0x124 build/kf_freertos_fpga/production/_ext/404212886/FreeRTOS_tasks.o

.text._drv_ibi_task%96
                0x00000000000b4cb4      0x120
 .text._drv_ibi_task
                0x00000000000b4cb4      0x120 build/kf_freertos_fpga/production/_ext/101992513/drv_i3c.o

.text.mini_itoa%97
                0x00000000000b4dd4      0x11c
 .text.mini_itoa
                0x00000000000b4dd4      0x11c build/kf_freertos_fpga/production/_ext/1420773124/trace.o

.text.DRV_I3C_IBI_enable%98
                0x00000000000b4ef0      0x110
 .text.DRV_I3C_IBI_enable
                0x00000000000b4ef0      0x110 build/kf_freertos_fpga/production/_ext/101992513/drv_i3c.o
                0x00000000000b4ef0                DRV_I3C_IBI_enable

.text.DRV_I3C_IBI_disable%99
                0x00000000000b5000      0x110
 .text.DRV_I3C_IBI_disable
                0x00000000000b5000      0x110 build/kf_freertos_fpga/production/_ext/101992513/drv_i3c.o
                0x00000000000b5000                DRV_I3C_IBI_disable

.text.i3c_bus_setdasa%100
                0x00000000000b5110      0x110
 .text.i3c_bus_setdasa
                0x00000000000b5110      0x110 build/kf_freertos_fpga/production/_ext/1886205328/i3c_common.o

.text.i3c_addr_slots_init%101
                0x00000000000b5220      0x10e
 .text.i3c_addr_slots_init
                0x00000000000b5220      0x10e build/kf_freertos_fpga/production/_ext/1886205328/i3c_common.o
                0x00000000000b5220                i3c_addr_slots_init

.text.prvInitialiseNewTask%102
                0x00000000000b532e      0x10c
 .text.prvInitialiseNewTask
                0x00000000000b532e      0x10c build/kf_freertos_fpga/production/_ext/404212886/FreeRTOS_tasks.o

.text.I3C_DO_Xfer_Prep%103
                0x00000000000b543c      0x108
 .text.I3C_DO_Xfer_Prep
                0x00000000000b543c      0x108 build/kf_freertos_fpga/production/_ext/825500651/plib_i3c.o
                0x00000000000b543c                I3C_DO_Xfer_Prep

.text._i3c_push_pull_timing_set%104
                0x00000000000b5544      0x104
 .text._i3c_push_pull_timing_set
                0x00000000000b5544      0x104 build/kf_freertos_fpga/production/_ext/825500651/plib_i3c_private.o
                0x00000000000b5544                _i3c_push_pull_timing_set

.text.xTaskPriorityDisinherit%105
                0x00000000000b5648      0x104
 .text.xTaskPriorityDisinherit
                0x00000000000b5648      0x104 build/kf_freertos_fpga/production/_ext/404212886/FreeRTOS_tasks.o
                0x00000000000b5648                xTaskPriorityDisinherit

.text.prvAddCurrentTaskToDelayedList%106
                0x00000000000b574c      0x100
 .text.prvAddCurrentTaskToDelayedList
                0x00000000000b574c      0x100 build/kf_freertos_fpga/production/_ext/404212886/FreeRTOS_tasks.o

.text.GPIO_PropertySet%107
                0x00000000000b584c       0xf4
 .text.GPIO_PropertySet
                0x00000000000b584c       0xf4 build/kf_freertos_fpga/production/_ext/179282931/plib_gpio.o
                0x00000000000b584c                GPIO_PropertySet

.text.I3C_DO_CCC%108
                0x00000000000b5940       0xec
 .text.I3C_DO_CCC
                0x00000000000b5940       0xec build/kf_freertos_fpga/production/_ext/825500651/plib_i3c.o
                0x00000000000b5940                I3C_DO_CCC

.text.TASK1_Tasks%109
                0x00000000000b5a2c       0xec
 .text.TASK1_Tasks
                0x00000000000b5a2c       0xec build/kf_freertos_fpga/production/_ext/1360937237/task1.o
                0x00000000000b5a2c                TASK1_Tasks

.text.DRV_I3C_ISR_Callback%110
                0x00000000000b5b18       0xea
 .text.DRV_I3C_ISR_Callback
                0x00000000000b5b18       0xea build/kf_freertos_fpga/production/_ext/101992513/drv_i3c.o

.text.xQueueGenericReset%111
                0x00000000000b5c04       0xe8
 .text.xQueueGenericReset
                0x00000000000b5c04       0xe8 build/kf_freertos_fpga/production/_ext/404212886/queue.o
                0x00000000000b5c04                xQueueGenericReset

.rodata%112     0x00000000000b5cec       0xe8
 .rodata        0x00000000000b5cec       0xe8 build/kf_freertos_fpga/production/_ext/1521323865/test_pvt_xfer.o

.text.TASK2_Tasks%113
                0x00000000000b5dd4       0xe8
 .text.TASK2_Tasks
                0x00000000000b5dd4       0xe8 build/kf_freertos_fpga/production/_ext/1360937237/task2.o
                0x00000000000b5dd4                TASK2_Tasks

.text.i3c_determine_default_addr%114
                0x00000000000b5ebc       0xde
 .text.i3c_determine_default_addr
                0x00000000000b5ebc       0xde build/kf_freertos_fpga/production/_ext/1886205328/i3c_common.o
                0x00000000000b5ebc                i3c_determine_default_addr

.text._drv_i3c_initiate_hotjoin%115
                0x00000000000b5f9c       0xdc
 .text._drv_i3c_initiate_hotjoin
                0x00000000000b5f9c       0xdc build/kf_freertos_fpga/production/_ext/101992513/drv_i3c.o

.text.i3c_device_basic_info_get%116
                0x00000000000b6078       0xd8
 .text.i3c_device_basic_info_get
                0x00000000000b6078       0xd8 build/kf_freertos_fpga/production/_ext/1886205328/i3c_common.o
                0x00000000000b6078                i3c_device_basic_info_get

.text.vTaskSwitchContext%117
                0x00000000000b6150       0xd8
 .text.vTaskSwitchContext
                0x00000000000b6150       0xd8 build/kf_freertos_fpga/production/_ext/404212886/FreeRTOS_tasks.o
                0x00000000000b6150                vTaskSwitchContext

.text.prvCopyDataToQueue%118
                0x00000000000b6228       0xd4
 .text.prvCopyDataToQueue
                0x00000000000b6228       0xd4 build/kf_freertos_fpga/production/_ext/404212886/queue.o

.text.uart_hw_init%119
                0x00000000000b62fc       0xd0
 .text.uart_hw_init
                0x00000000000b62fc       0xd0 build/kf_freertos_fpga/production/_ext/1732944825/uart_api.o
                0x00000000000b62fc                uart_hw_init

.text.i3c_ccc_do_setdasa%120
                0x00000000000b63cc       0xca
 .text.i3c_ccc_do_setdasa
                0x00000000000b63cc       0xca build/kf_freertos_fpga/production/_ext/1886205328/i3c_ccc.o
                0x00000000000b63cc                i3c_ccc_do_setdasa

.text._drv_tgt_rx_task%121
                0x00000000000b6498       0xc8
 .text._drv_tgt_rx_task
                0x00000000000b6498       0xc8 build/kf_freertos_fpga/production/_ext/101992513/drv_i3c.o

.text.p_uart_fifo_control_reg_set%122
                0x00000000000b6560       0xc8
 .text.p_uart_fifo_control_reg_set
                0x00000000000b6560       0xc8 build/kf_freertos_fpga/production/_ext/1732944825/uart_perphl.o
                0x00000000000b6560                p_uart_fifo_control_reg_set

.text.i3c_attach_i2c_device%123
                0x00000000000b6628       0xc6
 .text.i3c_attach_i2c_device
                0x00000000000b6628       0xc6 build/kf_freertos_fpga/production/_ext/1886205328/i3c_common.o
                0x00000000000b6628                i3c_attach_i2c_device

.text.DRV_I3C_do_CCC%124
                0x00000000000b66f0       0xc4
 .text.DRV_I3C_do_CCC
                0x00000000000b66f0       0xc4 build/kf_freertos_fpga/production/_ext/101992513/drv_i3c.o
                0x00000000000b66f0                DRV_I3C_do_CCC

.text._i3c_ibi_data_read%125
                0x00000000000b67b4       0xc4
 .text._i3c_ibi_data_read
                0x00000000000b67b4       0xc4 build/kf_freertos_fpga/production/_ext/825500651/plib_i3c_private.o
                0x00000000000b67b4                _i3c_ibi_data_read

.text.DRV_I3C_target_tx_write%126
                0x00000000000b6878       0xc0
 .text.DRV_I3C_target_tx_write
                0x00000000000b6878       0xc0 build/kf_freertos_fpga/production/_ext/101992513/drv_i3c.o
                0x00000000000b6878                DRV_I3C_target_tx_write

.text._drv_i3c_isr_controller%127
                0x00000000000b6938       0xbc
 .text._drv_i3c_isr_controller
                0x00000000000b6938       0xbc build/kf_freertos_fpga/production/_ext/101992513/drv_i3c.o

.text.GPIO_Initialize%128
                0x00000000000b69f4       0xb8
 .text.GPIO_Initialize
                0x00000000000b69f4       0xb8 build/kf_freertos_fpga/production/_ext/179282931/plib_gpio.o
                0x00000000000b69f4                GPIO_Initialize

.text.i3c_attach_i3c_device%129
                0x00000000000b6aac       0xb6
 .text.i3c_attach_i3c_device
                0x00000000000b6aac       0xb6 build/kf_freertos_fpga/production/_ext/1886205328/i3c_common.o
                0x00000000000b6aac                i3c_attach_i3c_device

.text._i3c_DCT_read%130
                0x00000000000b6b62       0xb6
 .text._i3c_DCT_read
                0x00000000000b6b62       0xb6 build/kf_freertos_fpga/production/_ext/825500651/plib_i3c_private.o
                0x00000000000b6b62                _i3c_DCT_read

.text._drv_i3c_targets_DAA_done%131
                0x00000000000b6c18       0xb0
 .text._drv_i3c_targets_DAA_done
                0x00000000000b6c18       0xb0 build/kf_freertos_fpga/production/_ext/101992513/drv_i3c.o

.text.pvPortMalloc%132
                0x00000000000b6cc8       0xb0
 .text.pvPortMalloc
                0x00000000000b6cc8       0xb0 build/kf_freertos_fpga/production/_ext/1665200909/heap_1.o
                0x00000000000b6cc8                pvPortMalloc

.rodata%133     0x00000000000b6d78       0xb0
 .rodata        0x00000000000b6d78       0xb0 build/kf_freertos_fpga/production/_ext/1360937237/task2.o

.text.I3C_Enable%134
                0x00000000000b6e28       0xa6
 .text.I3C_Enable
                0x00000000000b6e28       0xa6 build/kf_freertos_fpga/production/_ext/825500651/plib_i3c.o
                0x00000000000b6e28                I3C_Enable

.text.xQueueGiveFromISR%135
                0x00000000000b6ece       0xa6
 .text.xQueueGiveFromISR
                0x00000000000b6ece       0xa6 build/kf_freertos_fpga/production/_ext/404212886/queue.o
                0x00000000000b6ece                xQueueGiveFromISR

.text.prvUnlockQueue%136
                0x00000000000b6f74       0xa4
 .text.prvUnlockQueue
                0x00000000000b6f74       0xa4 build/kf_freertos_fpga/production/_ext/404212886/queue.o

.text.i3c_ccc_do_getmrl%137
                0x00000000000b7018       0xa2
 .text.i3c_ccc_do_getmrl
                0x00000000000b7018       0xa2 build/kf_freertos_fpga/production/_ext/1886205328/i3c_ccc.o
                0x00000000000b7018                i3c_ccc_do_getmrl

.text.OSAL_SEM_Create%138
                0x00000000000b70ba       0xa2
 .text.OSAL_SEM_Create
                0x00000000000b70ba       0xa2 build/kf_freertos_fpga/production/_ext/785111490/osal_freertos.o
                0x00000000000b70ba                OSAL_SEM_Create

.text.DRV_I3C_detach_device%139
                0x00000000000b715c       0x9c
 .text.DRV_I3C_detach_device
                0x00000000000b715c       0x9c build/kf_freertos_fpga/production/_ext/101992513/drv_i3c.o
                0x00000000000b715c                DRV_I3C_detach_device

.text.DRV_I3C_reattach_device%140
                0x00000000000b71f8       0x9c
 .text.DRV_I3C_reattach_device
                0x00000000000b71f8       0x9c build/kf_freertos_fpga/production/_ext/101992513/drv_i3c.o
                0x00000000000b71f8                DRV_I3C_reattach_device

.text.prvProcessTimerOrBlockTask%141
                0x00000000000b7294       0x9c
 .text.prvProcessTimerOrBlockTask
                0x00000000000b7294       0x9c build/kf_freertos_fpga/production/_ext/404212886/timers.o

.text.i3c_detach_i3c_device%142
                0x00000000000b7330       0x9a
 .text.i3c_detach_i3c_device
                0x00000000000b7330       0x9a build/kf_freertos_fpga/production/_ext/1886205328/i3c_common.o
                0x00000000000b7330                i3c_detach_i3c_device

.text._drv_pending_xfer_ctxt_init%143
                0x00000000000b73cc       0x98
 .text._drv_pending_xfer_ctxt_init
                0x00000000000b73cc       0x98 build/kf_freertos_fpga/production/_ext/101992513/drv_i3c.o

.text.DRV_I3C_configure%144
                0x00000000000b7464       0x96
 .text.DRV_I3C_configure
                0x00000000000b7464       0x96 build/kf_freertos_fpga/production/_ext/101992513/drv_i3c.o
                0x00000000000b7464                DRV_I3C_configure

.text._drv_i3c_free_tgt_rx_node_get_isr%145
                0x00000000000b74fa       0x94
 .text._drv_i3c_free_tgt_rx_node_get_isr
                0x00000000000b74fa       0x94 build/kf_freertos_fpga/production/_ext/101992513/drv_i3c.o
                0x00000000000b74fa                _drv_i3c_free_tgt_rx_node_get_isr

.text.xTaskCheckForTimeOut%146
                0x00000000000b7590       0x94
 .text.xTaskCheckForTimeOut
                0x00000000000b7590       0x94 build/kf_freertos_fpga/production/_ext/404212886/FreeRTOS_tasks.o
                0x00000000000b7590                xTaskCheckForTimeOut

.text.i3c_write_read%147
                0x00000000000b7624       0x90
 .text.i3c_write_read
                0x00000000000b7624       0x90 build/kf_freertos_fpga/production/_ext/1521323865/test_pvt_xfer.o

.text.tgt0_write_received_cb%148
                0x00000000000b76b4       0x90
 .text.tgt0_write_received_cb
                0x00000000000b76b4       0x90 build/kf_freertos_fpga/production/_ext/1521323865/tgt_test_pvt_xfer.o

.text.i3c_addr_slots_set%149
                0x00000000000b7744       0x8e
 .text.i3c_addr_slots_set
                0x00000000000b7744       0x8e build/kf_freertos_fpga/production/_ext/1886205328/i3c_common.o
                0x00000000000b7744                i3c_addr_slots_set

.text.i3c_reattach_i3c_device%150
                0x00000000000b77d2       0x8c
 .text.i3c_reattach_i3c_device
                0x00000000000b77d2       0x8c build/kf_freertos_fpga/production/_ext/1886205328/i3c_common.o
                0x00000000000b77d2                i3c_reattach_i3c_device

.text.test_private_write_read%151
                0x00000000000b7860       0x88
 .text.test_private_write_read
                0x00000000000b7860       0x88 build/kf_freertos_fpga/production/_ext/1521323865/test_pvt_xfer.o
                0x00000000000b7860                test_private_write_read

.text.prvInsertTimerInActiveList%152
                0x00000000000b78e8       0x84
 .text.prvInsertTimerInActiveList
                0x00000000000b78e8       0x84 build/kf_freertos_fpga/production/_ext/404212886/timers.o

.text.i3c_ccc_do_getmwl%153
                0x00000000000b796c       0x82
 .text.i3c_ccc_do_getmwl
                0x00000000000b796c       0x82 build/kf_freertos_fpga/production/_ext/1886205328/i3c_ccc.o
                0x00000000000b796c                i3c_ccc_do_getmwl

.text.xTaskCreate%154
                0x00000000000b79ee       0x82
 .text.xTaskCreate
                0x00000000000b79ee       0x82 build/kf_freertos_fpga/production/_ext/404212886/FreeRTOS_tasks.o
                0x00000000000b79ee                xTaskCreate

.text._i3c_tgt_raise_ibi_SIR%155
                0x00000000000b7a70       0x80
 .text._i3c_tgt_raise_ibi_SIR
                0x00000000000b7a70       0x80 build/kf_freertos_fpga/production/_ext/825500651/plib_i3c_private.o
                0x00000000000b7a70                _i3c_tgt_raise_ibi_SIR

.text.vTaskStartScheduler%156
                0x00000000000b7af0       0x80
 .text.vTaskStartScheduler
                0x00000000000b7af0       0x80 build/kf_freertos_fpga/production/_ext/404212886/FreeRTOS_tasks.o
                0x00000000000b7af0                vTaskStartScheduler

.text.prvInitialiseTaskLists%157
                0x00000000000b7b70       0x80
 .text.prvInitialiseTaskLists
                0x00000000000b7b70       0x80 build/kf_freertos_fpga/production/_ext/404212886/FreeRTOS_tasks.o

.text.xQueueGenericCreate%158
                0x00000000000b7bf0       0x7e
 .text.xQueueGenericCreate
                0x00000000000b7bf0       0x7e build/kf_freertos_fpga/production/_ext/404212886/queue.o
                0x00000000000b7bf0                xQueueGenericCreate

.text.I3C_Target_Init%159
                0x00000000000b7c70       0x7c
 .text.I3C_Target_Init
                0x00000000000b7c70       0x7c build/kf_freertos_fpga/production/_ext/825500651/plib_i3c.o
                0x00000000000b7c70                I3C_Target_Init

.text._i3c_fifo_read%160
                0x00000000000b7cec       0x7c
 .text._i3c_fifo_read
                0x00000000000b7cec       0x7c build/kf_freertos_fpga/production/_ext/825500651/plib_i3c_private.o
                0x00000000000b7cec                _i3c_fifo_read

.text.PCR_Initialize%161
                0x00000000000b7d68       0x7c
 .text.PCR_Initialize
                0x00000000000b7d68       0x7c build/kf_freertos_fpga/production/_ext/825492421/plib_pcr.o
                0x00000000000b7d68                PCR_Initialize

.text.I3C_TGT_PID_set%162
                0x00000000000b7de4       0x7a
 .text.I3C_TGT_PID_set
                0x00000000000b7de4       0x7a build/kf_freertos_fpga/production/_ext/825500651/plib_i3c.o
                0x00000000000b7de4                I3C_TGT_PID_set

.text._drv_i3c_DAT_free_pos_get%163
                0x00000000000b7e5e       0x78
 .text._drv_i3c_DAT_free_pos_get
                0x00000000000b7e5e       0x78 build/kf_freertos_fpga/production/_ext/101992513/drv_i3c.o

.text.sys_slist_remove%164
                0x00000000000b7ed6       0x78
 .text.sys_slist_remove
                0x00000000000b7ed6       0x78 build/kf_freertos_fpga/production/_ext/1886205328/i3c_common.o

.text.SYS_Tasks%165
                0x00000000000b7f50       0x78
 .text.SYS_Tasks
                0x00000000000b7f50       0x78 build/kf_freertos_fpga/production/_ext/29258880/tasks.o
                0x00000000000b7f50                SYS_Tasks

.text.print_buf%166
                0x00000000000b7fc8       0x74
 .text.print_buf
                0x00000000000b7fc8       0x74 build/kf_freertos_fpga/production/_ext/1420773124/trace.o
                0x00000000000b7fc8                print_buf

.text._drv_i3c_targets_DAA_addr_update%167
                0x00000000000b803c       0x74
 .text._drv_i3c_targets_DAA_addr_update
                0x00000000000b803c       0x74 build/kf_freertos_fpga/production/_ext/101992513/drv_i3c.o

.text._drv_i3c_DAT_idx_get%168
                0x00000000000b80b0       0x74
 .text._drv_i3c_DAT_idx_get
                0x00000000000b80b0       0x74 build/kf_freertos_fpga/production/_ext/101992513/drv_i3c.o

.text.I3C_TGT_DEFSLVS_DAT_write%169
                0x00000000000b8124       0x74
 .text.I3C_TGT_DEFSLVS_DAT_write
                0x00000000000b8124       0x74 build/kf_freertos_fpga/production/_ext/825500651/plib_i3c.o
                0x00000000000b8124                I3C_TGT_DEFSLVS_DAT_write

.text.I3C_DO_DAA%170
                0x00000000000b8198       0x74
 .text.I3C_DO_DAA
                0x00000000000b8198       0x74 build/kf_freertos_fpga/production/_ext/825500651/plib_i3c.o
                0x00000000000b8198                I3C_DO_DAA

.text.I3C_IBI_SIR_Enable%171
                0x00000000000b820c       0x74
 .text.I3C_IBI_SIR_Enable
                0x00000000000b820c       0x74 build/kf_freertos_fpga/production/_ext/825500651/plib_i3c.o
                0x00000000000b820c                I3C_IBI_SIR_Enable

.text._i3c_fifo_write%172
                0x00000000000b8280       0x74
 .text._i3c_fifo_write
                0x00000000000b8280       0x74 build/kf_freertos_fpga/production/_ext/825500651/plib_i3c_private.o
                0x00000000000b8280                _i3c_fifo_write

.text.test_private_write%173
                0x00000000000b82f4       0x74
 .text.test_private_write
                0x00000000000b82f4       0x74 build/kf_freertos_fpga/production/_ext/1521323865/test_pvt_xfer.o
                0x00000000000b82f4                test_private_write

.text.test_private_read%174
                0x00000000000b8368       0x74
 .text.test_private_read
                0x00000000000b8368       0x74 build/kf_freertos_fpga/production/_ext/1521323865/test_pvt_xfer.o
                0x00000000000b8368                test_private_read

.rodata%175     0x00000000000b83dc       0x74
 .rodata        0x00000000000b83dc       0x74 build/kf_freertos_fpga/production/_ext/1521323865/tgt_test_pvt_xfer.o

.text.i3c_ccc_do_events_set%176
                0x00000000000b8450       0x72
 .text.i3c_ccc_do_events_set
                0x00000000000b8450       0x72 build/kf_freertos_fpga/production/_ext/1886205328/i3c_ccc.o
                0x00000000000b8450                i3c_ccc_do_events_set

.text.vListInsert%177
                0x00000000000b84c2       0x72
 .text.vListInsert
                0x00000000000b84c2       0x72 build/kf_freertos_fpga/production/_ext/404212886/list.o
                0x00000000000b84c2                vListInsert

.text.vTaskPlaceOnEventListRestricted%178
                0x00000000000b8534       0x70
 .text.vTaskPlaceOnEventListRestricted
                0x00000000000b8534       0x70 build/kf_freertos_fpga/production/_ext/404212886/FreeRTOS_tasks.o
                0x00000000000b8534                vTaskPlaceOnEventListRestricted

.text._i3c_sec_host_stuck_sda_scl_config%179
                0x00000000000b85a4       0x6c
 .text._i3c_sec_host_stuck_sda_scl_config
                0x00000000000b85a4       0x6c build/kf_freertos_fpga/production/_ext/825500651/plib_i3c_private.o
                0x00000000000b85a4                _i3c_sec_host_stuck_sda_scl_config

.rodata%180     0x00000000000b8610       0x68
 .rodata        0x00000000000b8610       0x68 build/kf_freertos_fpga/production/_ext/825500651/plib_i3c.o

.text.I3C_Thresholds_Init%181
                0x00000000000b8678       0x68
 .text.I3C_Thresholds_Init
                0x00000000000b8678       0x68 build/kf_freertos_fpga/production/_ext/825500651/plib_i3c.o
                0x00000000000b8678                I3C_Thresholds_Init

.text.I3C_IBI_SIR_Disable%182
                0x00000000000b86e0       0x68
 .text.I3C_IBI_SIR_Disable
                0x00000000000b86e0       0x68 build/kf_freertos_fpga/production/_ext/825500651/plib_i3c.o
                0x00000000000b86e0                I3C_IBI_SIR_Disable

.text.p_uart_baud_divisor_set%183
                0x00000000000b8748       0x68
 .text.p_uart_baud_divisor_set
                0x00000000000b8748       0x68 build/kf_freertos_fpga/production/_ext/1732944825/uart_perphl.o
                0x00000000000b8748                p_uart_baud_divisor_set

.text.pxPortInitialiseStack%184
                0x00000000000b87b0       0x68
 .text.pxPortInitialiseStack
                0x00000000000b87b0       0x68 build/kf_freertos_fpga/production/_ext/246609638/port.o
                0x00000000000b87b0                pxPortInitialiseStack

.text.xPortPendSVHandler%185
                0x00000000000b8820       0x68
 .text.xPortPendSVHandler
                0x00000000000b8820       0x68 build/kf_freertos_fpga/production/_ext/246609638/port.o
                0x00000000000b8820                xPortPendSVHandler

.text.vQueueWaitForMessageRestricted%186
                0x00000000000b8888       0x68
 .text.vQueueWaitForMessageRestricted
                0x00000000000b8888       0x68 build/kf_freertos_fpga/production/_ext/404212886/queue.o
                0x00000000000b8888                vQueueWaitForMessageRestricted

.text.NVIC_Initialize%187
                0x00000000000b88f0       0x64
 .text.NVIC_Initialize
                0x00000000000b88f0       0x64 build/kf_freertos_fpga/production/_ext/179497222/plib_nvic.o
                0x00000000000b88f0                NVIC_Initialize

.text.i3c_dev_list_find%188
                0x00000000000b8954       0x62
 .text.i3c_dev_list_find
                0x00000000000b8954       0x62 build/kf_freertos_fpga/production/_ext/1886205328/i3c_common.o
                0x00000000000b8954                i3c_dev_list_find

.text._i3c_tgt_response_sts_get%189
                0x00000000000b89b6       0x62
 .text._i3c_tgt_response_sts_get
                0x00000000000b89b6       0x62 build/kf_freertos_fpga/production/_ext/825500651/plib_i3c_private.o
                0x00000000000b89b6                _i3c_tgt_response_sts_get

.rodata.mchp_i3c_driver_api%190
                0x00000000000b8a18       0x60
 .rodata.mchp_i3c_driver_api
                0x00000000000b8a18       0x60 build/kf_freertos_fpga/production/_ext/101992513/drv_i3c_config.o

.text.i3c_addr_slots_status%191
                0x00000000000b8a78       0x60
 .text.i3c_addr_slots_status
                0x00000000000b8a78       0x60 build/kf_freertos_fpga/production/_ext/1886205328/i3c_common.o
                0x00000000000b8a78                i3c_addr_slots_status

.text.I3C_Target_MRL_MWL_update%192
                0x00000000000b8ad8       0x60
 .text.I3C_Target_MRL_MWL_update
                0x00000000000b8ad8       0x60 build/kf_freertos_fpga/production/_ext/825500651/plib_i3c.o
                0x00000000000b8ad8                I3C_Target_MRL_MWL_update

.text.I3C_GRP_InterruptHandler%193
                0x00000000000b8b38       0x60
 .text.I3C_GRP_InterruptHandler
                0x00000000000b8b38       0x60 build/kf_freertos_fpga/production/_ext/825500651/plib_i3c.o
                0x00000000000b8b38                I3C_GRP_InterruptHandler

.text._i2c_fm_timing_set%194
                0x00000000000b8b98       0x60
 .text._i2c_fm_timing_set
                0x00000000000b8b98       0x60 build/kf_freertos_fpga/production/_ext/825500651/plib_i3c_private.o
                0x00000000000b8b98                _i2c_fm_timing_set

.text._i3c_open_drain_timing_set%195
                0x00000000000b8bf8       0x60
 .text._i3c_open_drain_timing_set
                0x00000000000b8bf8       0x60 build/kf_freertos_fpga/production/_ext/825500651/plib_i3c_private.o
                0x00000000000b8bf8                _i3c_open_drain_timing_set

.text.prvProcessExpiredTimer%196
                0x00000000000b8c58       0x60
 .text.prvProcessExpiredTimer
                0x00000000000b8c58       0x60 build/kf_freertos_fpga/production/_ext/404212886/timers.o

.text._i3c_SDCT_read%197
                0x00000000000b8cb8       0x5e
 .text._i3c_SDCT_read
                0x00000000000b8cb8       0x5e build/kf_freertos_fpga/production/_ext/825500651/plib_i3c_private.o
                0x00000000000b8cb8                _i3c_SDCT_read

.text._i3c_tgt_max_speed_update%198
                0x00000000000b8d16       0x5e
 .text._i3c_tgt_max_speed_update
                0x00000000000b8d16       0x5e build/kf_freertos_fpga/production/_ext/825500651/plib_i3c_private.o
                0x00000000000b8d16                _i3c_tgt_max_speed_update

.text.I3C_queue_depths_get%199
                0x00000000000b8d74       0x5c
 .text.I3C_queue_depths_get
                0x00000000000b8d74       0x5c build/kf_freertos_fpga/production/_ext/825500651/plib_i3c.o
                0x00000000000b8d74                I3C_queue_depths_get

.text.I3C_DO_TGT_Xfer%200
                0x00000000000b8dd0       0x5c
 .text.I3C_DO_TGT_Xfer
                0x00000000000b8dd0       0x5c build/kf_freertos_fpga/production/_ext/825500651/plib_i3c.o
                0x00000000000b8dd0                I3C_DO_TGT_Xfer

.text.__libc_start_init%201
                0x00000000000b8e2c       0x5c
 .text.__libc_start_init
                0x00000000000b8e2c       0x5c c:/program files/microchip/xc32/v4.45/bin/bin/../../lib/gcc/pic32c/8.3.1/../../../../pic32c/lib/thumb/v7e-m+fp/hard\libc-musl.a(__libc_start_main.o)
                0x00000000000b8e2c                __libc_init_array

.text._drv_i3c_free_ibi_node_get_isr%202
                0x00000000000b8e88       0x58
 .text._drv_i3c_free_ibi_node_get_isr
                0x00000000000b8e88       0x58 build/kf_freertos_fpga/production/_ext/101992513/drv_i3c.o
                0x00000000000b8e88                _drv_i3c_free_ibi_node_get_isr

.text._i2c_fmp_timing_set%203
                0x00000000000b8ee0       0x58
 .text._i2c_fmp_timing_set
                0x00000000000b8ee0       0x58 build/kf_freertos_fpga/production/_ext/825500651/plib_i3c_private.o
                0x00000000000b8ee0                _i2c_fmp_timing_set

.text.prvCheckTasksWaitingTermination%204
                0x00000000000b8f38       0x58
 .text.prvCheckTasksWaitingTermination
                0x00000000000b8f38       0x58 build/kf_freertos_fpga/production/_ext/404212886/FreeRTOS_tasks.o

.text.i3c_ccc_do_getbcr%205
                0x00000000000b8f90       0x56
 .text.i3c_ccc_do_getbcr
                0x00000000000b8f90       0x56 build/kf_freertos_fpga/production/_ext/1886205328/i3c_ccc.o
                0x00000000000b8f90                i3c_ccc_do_getbcr

.text.i3c_ccc_do_getdcr%206
                0x00000000000b8fe6       0x56
 .text.i3c_ccc_do_getdcr
                0x00000000000b8fe6       0x56 build/kf_freertos_fpga/production/_ext/1886205328/i3c_ccc.o
                0x00000000000b8fe6                i3c_ccc_do_getdcr

.text._drv_i3c_targets_next_DAA_get%207
                0x00000000000b903c       0x54
 .text._drv_i3c_targets_next_DAA_get
                0x00000000000b903c       0x54 build/kf_freertos_fpga/production/_ext/101992513/drv_i3c.o

.text.OSAL_SEM_Pend%208
                0x00000000000b9090       0x54
 .text.OSAL_SEM_Pend
                0x00000000000b9090       0x54 build/kf_freertos_fpga/production/_ext/785111490/osal_freertos.o
                0x00000000000b9090                OSAL_SEM_Pend

.text.__NVIC_SetPriority%209
                0x00000000000b90e4       0x54
 .text.__NVIC_SetPriority
                0x00000000000b90e4       0x54 build/kf_freertos_fpga/production/_ext/179497222/plib_nvic.o

.text.xPortStartScheduler%210
                0x00000000000b9138       0x54
 .text.xPortStartScheduler
                0x00000000000b9138       0x54 build/kf_freertos_fpga/production/_ext/246609638/port.o
                0x00000000000b9138                xPortStartScheduler

.text.prvCheckForValidListAndQueue%211
                0x00000000000b918c       0x54
 .text.prvCheckForValidListAndQueue
                0x00000000000b918c       0x54 build/kf_freertos_fpga/production/_ext/404212886/timers.o

.text.uxListRemove%212
                0x00000000000b91e0       0x54
 .text.uxListRemove
                0x00000000000b91e0       0x54 build/kf_freertos_fpga/production/_ext/404212886/list.o
                0x00000000000b91e0                uxListRemove

.text.i3c_write%213
                0x00000000000b9234       0x54
 .text.i3c_write
                0x00000000000b9234       0x54 build/kf_freertos_fpga/production/_ext/1521323865/test_pvt_xfer.o

.text.i3c_read%214
                0x00000000000b9288       0x54
 .text.i3c_read
                0x00000000000b9288       0x54 build/kf_freertos_fpga/production/_ext/1521323865/test_pvt_xfer.o

.text._i3c_sda_hld_switch_delay_timing_set%215
                0x00000000000b92dc       0x52
 .text._i3c_sda_hld_switch_delay_timing_set
                0x00000000000b92dc       0x52 build/kf_freertos_fpga/production/_ext/825500651/plib_i3c_private.o
                0x00000000000b92dc                _i3c_sda_hld_switch_delay_timing_set

.text._i3c_host_stuck_sda_config%216
                0x00000000000b932e       0x52
 .text._i3c_host_stuck_sda_config
                0x00000000000b932e       0x52 build/kf_freertos_fpga/production/_ext/825500651/plib_i3c_private.o
                0x00000000000b932e                _i3c_host_stuck_sda_config

.text._i3c_host_tx_dma_tout_config%217
                0x00000000000b9380       0x52
 .text._i3c_host_tx_dma_tout_config
                0x00000000000b9380       0x52 build/kf_freertos_fpga/production/_ext/825500651/plib_i3c_private.o
                0x00000000000b9380                _i3c_host_tx_dma_tout_config

.text._i3c_host_rx_dma_tout_config%218
                0x00000000000b93d2       0x52
 .text._i3c_host_rx_dma_tout_config
                0x00000000000b93d2       0x52 build/kf_freertos_fpga/production/_ext/825500651/plib_i3c_private.o
                0x00000000000b93d2                _i3c_host_rx_dma_tout_config

.text.get_event%219
                0x00000000000b9424       0x52
 .text.get_event
                0x00000000000b9424       0x52 build/kf_freertos_fpga/production/_ext/1360937237/task1.o
                0x00000000000b9424                get_event

.text.DRV_I3C1_Initialize%220
                0x00000000000b9478       0x50
 .text.DRV_I3C1_Initialize
                0x00000000000b9478       0x50 build/kf_freertos_fpga/production/_ext/101992513/drv_i3c_config.o
                0x00000000000b9478                DRV_I3C1_Initialize

.text.sys_slist_append%221
                0x00000000000b94c8       0x50
 .text.sys_slist_append
                0x00000000000b94c8       0x50 build/kf_freertos_fpga/production/_ext/1886205328/i3c_common.o

.text.I3C_Sec_Host_Config%222
                0x00000000000b9518       0x50
 .text.I3C_Sec_Host_Config
                0x00000000000b9518       0x50 build/kf_freertos_fpga/production/_ext/825500651/plib_i3c.o
                0x00000000000b9518                I3C_Sec_Host_Config

.text.I3C_DAT_DynamicAddrAssign_write%223
                0x00000000000b9568       0x50
 .text.I3C_DAT_DynamicAddrAssign_write
                0x00000000000b9568       0x50 build/kf_freertos_fpga/production/_ext/825500651/plib_i3c.o
                0x00000000000b9568                I3C_DAT_DynamicAddrAssign_write

.text._i3c_tgt_pid_set%224
                0x00000000000b95b8       0x50
 .text._i3c_tgt_pid_set
                0x00000000000b95b8       0x50 build/kf_freertos_fpga/production/_ext/825500651/plib_i3c_private.o
                0x00000000000b95b8                _i3c_tgt_pid_set

.text.p_uart_baud_clk_src_set%225
                0x00000000000b9608       0x50
 .text.p_uart_baud_clk_src_set
                0x00000000000b9608       0x50 build/kf_freertos_fpga/production/_ext/1732944825/uart_perphl.o
                0x00000000000b9608                p_uart_baud_clk_src_set

.text.SYS_Initialize%226
                0x00000000000b9658       0x50
 .text.SYS_Initialize
                0x00000000000b9658       0x50 build/kf_freertos_fpga/production/_ext/29258880/initialization.o
                0x00000000000b9658                SYS_Initialize

.text._drv_i3c_targets_free_pos_get%227
                0x00000000000b96a8       0x4c
 .text._drv_i3c_targets_free_pos_get
                0x00000000000b96a8       0x4c build/kf_freertos_fpga/production/_ext/101992513/drv_i3c.o

.text._drv_tgt_tx_done_task%228
                0x00000000000b96f4       0x4c
 .text._drv_tgt_tx_done_task
                0x00000000000b96f4       0x4c build/kf_freertos_fpga/production/_ext/101992513/drv_i3c.o

.text.OSAL_SEM_PostISR%229
                0x00000000000b9740       0x4c
 .text.OSAL_SEM_PostISR
                0x00000000000b9740       0x4c build/kf_freertos_fpga/production/_ext/785111490/osal_freertos.o
                0x00000000000b9740                OSAL_SEM_PostISR

.text.ECIA_GIRQResultGet%230
                0x00000000000b978c       0x4c
 .text.ECIA_GIRQResultGet
                0x00000000000b978c       0x4c build/kf_freertos_fpga/production/_ext/179210842/plib_ecia.o
                0x00000000000b978c                ECIA_GIRQResultGet

.text.I3C_Host_Config%231
                0x00000000000b97d8       0x4c
 .text.I3C_Host_Config
                0x00000000000b97d8       0x4c build/kf_freertos_fpga/production/_ext/825500651/plib_i3c.o
                0x00000000000b97d8                I3C_Host_Config

.text._i3c_enable%232
                0x00000000000b9824       0x4c
 .text._i3c_enable
                0x00000000000b9824       0x4c build/kf_freertos_fpga/production/_ext/825500651/plib_i3c_private.o
                0x00000000000b9824                _i3c_enable

.text.Reset_Handler%233
                0x00000000000b9870       0x4c
 .text.Reset_Handler
                0x00000000000b9870       0x4c build/kf_freertos_fpga/production/_ext/29258880/startup_xc32.o
                0x00000000000b9870                Reset_Handler

.text.prvCopyDataFromQueue%234
                0x00000000000b98bc       0x4c
 .text.prvCopyDataFromQueue
                0x00000000000b98bc       0x4c build/kf_freertos_fpga/production/_ext/404212886/queue.o

.text.prvSwitchTimerLists%235
                0x00000000000b9908       0x4c
 .text.prvSwitchTimerLists
                0x00000000000b9908       0x4c build/kf_freertos_fpga/production/_ext/404212886/timers.o

.text.sys_slist_find_and_remove%236
                0x00000000000b9954       0x4a
 .text.sys_slist_find_and_remove
                0x00000000000b9954       0x4a build/kf_freertos_fpga/production/_ext/1886205328/i3c_common.o

.text.i3c_dev_list_i3c_addr_find%237
                0x00000000000b999e       0x4a
 .text.i3c_dev_list_i3c_addr_find
                0x00000000000b999e       0x4a build/kf_freertos_fpga/production/_ext/1886205328/i3c_common.o
                0x00000000000b999e                i3c_dev_list_i3c_addr_find

.text.ECIA_GIRQSourceClear%238
                0x00000000000b99e8       0x48
 .text.ECIA_GIRQSourceClear
                0x00000000000b99e8       0x48 build/kf_freertos_fpga/production/_ext/179210842/plib_ecia.o
                0x00000000000b99e8                ECIA_GIRQSourceClear

.text._i3c_response_sts_get%239
                0x00000000000b9a30       0x48
 .text._i3c_response_sts_get
                0x00000000000b9a30       0x48 build/kf_freertos_fpga/production/_ext/825500651/plib_i3c_private.o
                0x00000000000b9a30                _i3c_response_sts_get

.text.__NVIC_SetPriorityGrouping%240
                0x00000000000b9a78       0x48
 .text.__NVIC_SetPriorityGrouping
                0x00000000000b9a78       0x48 build/kf_freertos_fpga/production/_ext/179497222/plib_nvic.o

.text.p_uart_line_control_reg_set%241
                0x00000000000b9ac0       0x48
 .text.p_uart_line_control_reg_set
                0x00000000000b9ac0       0x48 build/kf_freertos_fpga/production/_ext/1732944825/uart_perphl.o
                0x00000000000b9ac0                p_uart_line_control_reg_set

.text.xTimerCreateTimerTask%242
                0x00000000000b9b08       0x48
 .text.xTimerCreateTimerTask
                0x00000000000b9b08       0x48 build/kf_freertos_fpga/production/_ext/404212886/timers.o
                0x00000000000b9b08                xTimerCreateTimerTask

.text.prvGetNextExpireTime%243
                0x00000000000b9b50       0x48
 .text.prvGetNextExpireTime
                0x00000000000b9b50       0x48 build/kf_freertos_fpga/production/_ext/404212886/timers.o

.text.vTaskDelay%244
                0x00000000000b9b98       0x48
 .text.vTaskDelay
                0x00000000000b9b98       0x48 build/kf_freertos_fpga/production/_ext/404212886/FreeRTOS_tasks.o
                0x00000000000b9b98                vTaskDelay

.text.__dinit_decompress%245
                0x00000000000b9be0       0x46
 .text.__dinit_decompress
                0x00000000000b9be0       0x46 c:/program files/microchip/xc32/v4.45/bin/bin/../../lib/gcc/pic32c/8.3.1/../../../../pic32c/lib/thumb/v7e-m+fp/hard\libpic32c.a(pic32_data_init_decompress.o)
                0x00000000000b9be0                __dinit_decompress
                0x00000000000b9be0                __dinit_decompress_needed

.text.i3c_ccc_do_events_all_set%246
                0x00000000000b9c26       0x44
 .text.i3c_ccc_do_events_all_set
                0x00000000000b9c26       0x44 build/kf_freertos_fpga/production/_ext/1886205328/i3c_ccc.o
                0x00000000000b9c26                i3c_ccc_do_events_all_set

.text.ECIA_GIRQSourceEnable%247
                0x00000000000b9c6c       0x44
 .text.ECIA_GIRQSourceEnable
                0x00000000000b9c6c       0x44 build/kf_freertos_fpga/production/_ext/179210842/plib_ecia.o
                0x00000000000b9c6c                ECIA_GIRQSourceEnable

.text.p_uart_interrupt_enable_reg_set%248
                0x00000000000b9cb0       0x44
 .text.p_uart_interrupt_enable_reg_set
                0x00000000000b9cb0       0x44 build/kf_freertos_fpga/production/_ext/1732944825/uart_perphl.o
                0x00000000000b9cb0                p_uart_interrupt_enable_reg_set

.text.p_uart_interrupt_enable_reg_get%249
                0x00000000000b9cf4       0x44
 .text.p_uart_interrupt_enable_reg_get
                0x00000000000b9cf4       0x44 build/kf_freertos_fpga/production/_ext/1732944825/uart_perphl.o
                0x00000000000b9cf4                p_uart_interrupt_enable_reg_get

.text.FPU_Enable%250
                0x00000000000b9d38       0x44
 .text.FPU_Enable
                0x00000000000b9d38       0x44 build/kf_freertos_fpga/production/_ext/29258880/startup_xc32.o

.text.i3c_ccc_do_rstact_all%251
                0x00000000000b9d7c       0x42
 .text.i3c_ccc_do_rstact_all
                0x00000000000b9d7c       0x42 build/kf_freertos_fpga/production/_ext/1886205328/i3c_ccc.o
                0x00000000000b9d7c                i3c_ccc_do_rstact_all

.text%252       0x00000000000b9dc0       0x40
 .text          0x00000000000b9dc0       0x40 c:/program files/microchip/xc32/v4.45/bin/bin/../../lib/gcc/pic32c/8.3.1/thumb/v7e-m+fp/hard/crtbegin.o

.text.set_gpio_config_invert_or_non_invert%253
                0x00000000000b9e00       0x40
 .text.set_gpio_config_invert_or_non_invert
                0x00000000000b9e00       0x40 build/kf_freertos_fpga/production/_ext/101992513/drv_i3c.o
                0x00000000000b9e00                set_gpio_config_invert_or_non_invert

.text.I3C_TGT_Error_Recovery%254
                0x00000000000b9e40       0x40
 .text.I3C_TGT_Error_Recovery
                0x00000000000b9e40       0x40 build/kf_freertos_fpga/production/_ext/825500651/plib_i3c.o
                0x00000000000b9e40                I3C_TGT_Error_Recovery

.text._i3c_bus_free_timing_set%255
                0x00000000000b9e80       0x40
 .text._i3c_bus_free_timing_set
                0x00000000000b9e80       0x40 build/kf_freertos_fpga/production/_ext/825500651/plib_i3c_private.o
                0x00000000000b9e80                _i3c_bus_free_timing_set

.text.p_uart_instance_addr_get%256
                0x00000000000b9ec0       0x40
 .text.p_uart_instance_addr_get
                0x00000000000b9ec0       0x40 build/kf_freertos_fpga/production/_ext/1732944825/uart_perphl.o

.text.p_uart_enable_disable%257
                0x00000000000b9f00       0x40
 .text.p_uart_enable_disable
                0x00000000000b9f00       0x40 build/kf_freertos_fpga/production/_ext/1732944825/uart_perphl.o
                0x00000000000b9f00                p_uart_enable_disable

.text.xPortSysTickHandler%258
                0x00000000000b9f40       0x40
 .text.xPortSysTickHandler
                0x00000000000b9f40       0x40 build/kf_freertos_fpga/production/_ext/246609638/port.o
                0x00000000000b9f40                xPortSysTickHandler

.text.prvReloadTimer%259
                0x00000000000b9f80       0x40
 .text.prvReloadTimer
                0x00000000000b9f80       0x40 build/kf_freertos_fpga/production/_ext/404212886/timers.o

.text.prvSampleTimeNow%260
                0x00000000000b9fc0       0x40
 .text.prvSampleTimeNow
                0x00000000000b9fc0       0x40 build/kf_freertos_fpga/production/_ext/404212886/timers.o

.text.vListInitialise%261
                0x00000000000ba000       0x40
 .text.vListInitialise
                0x00000000000ba000       0x40 build/kf_freertos_fpga/production/_ext/404212886/list.o
                0x00000000000ba000                vListInitialise

.text.TASK1_Initialize%262
                0x00000000000ba040       0x40
 .text.TASK1_Initialize
                0x00000000000ba040       0x40 build/kf_freertos_fpga/production/_ext/1360937237/task1.o
                0x00000000000ba040                TASK1_Initialize

.text.p_uart_tx_buff_write%263
                0x00000000000ba080       0x3e
 .text.p_uart_tx_buff_write
                0x00000000000ba080       0x3e build/kf_freertos_fpga/production/_ext/1732944825/uart_perphl.o
                0x00000000000ba080                p_uart_tx_buff_write

.text.prvInitialiseNewQueue%264
                0x00000000000ba0be       0x3e
 .text.prvInitialiseNewQueue
                0x00000000000ba0be       0x3e build/kf_freertos_fpga/production/_ext/404212886/queue.o

.text.xQueueCreateCountingSemaphore%265
                0x00000000000ba0fc       0x3e
 .text.xQueueCreateCountingSemaphore
                0x00000000000ba0fc       0x3e build/kf_freertos_fpga/production/_ext/404212886/queue.o
                0x00000000000ba0fc                xQueueCreateCountingSemaphore

.text.DRV_I3C0_Initialize%266
                0x00000000000ba13c       0x3c
 .text.DRV_I3C0_Initialize
                0x00000000000ba13c       0x3c build/kf_freertos_fpga/production/_ext/101992513/drv_i3c_config.o
                0x00000000000ba13c                DRV_I3C0_Initialize

.text.i3c_addr_slots_next_free_find%267
                0x00000000000ba178       0x3c
 .text.i3c_addr_slots_next_free_find
                0x00000000000ba178       0x3c build/kf_freertos_fpga/production/_ext/1886205328/i3c_common.o
                0x00000000000ba178                i3c_addr_slots_next_free_find

.text.I3C_Controller_Clk_Cfg_I2C%268
                0x00000000000ba1b4       0x3c
 .text.I3C_Controller_Clk_Cfg_I2C
                0x00000000000ba1b4       0x3c build/kf_freertos_fpga/production/_ext/825500651/plib_i3c.o
                0x00000000000ba1b4                I3C_Controller_Clk_Cfg_I2C

.text.I3C_TGT_IBI_SIR_Raise%269
                0x00000000000ba1f0       0x3c
 .text.I3C_TGT_IBI_SIR_Raise
                0x00000000000ba1f0       0x3c build/kf_freertos_fpga/production/_ext/825500651/plib_i3c.o
                0x00000000000ba1f0                I3C_TGT_IBI_SIR_Raise

.text._i3c_bus_available_timing_set%270
                0x00000000000ba22c       0x3c
 .text._i3c_bus_available_timing_set
                0x00000000000ba22c       0x3c build/kf_freertos_fpga/production/_ext/825500651/plib_i3c_private.o
                0x00000000000ba22c                _i3c_bus_available_timing_set

.text._i3c_dev_char_table_ptr_get%271
                0x00000000000ba268       0x3c
 .text._i3c_dev_char_table_ptr_get
                0x00000000000ba268       0x3c build/kf_freertos_fpga/production/_ext/825500651/plib_i3c_private.o
                0x00000000000ba268                _i3c_dev_char_table_ptr_get

.text._i3c_tgt_ibi_resp_get%272
                0x00000000000ba2a4       0x3c
 .text._i3c_tgt_ibi_resp_get
                0x00000000000ba2a4       0x3c build/kf_freertos_fpga/production/_ext/825500651/plib_i3c_private.o
                0x00000000000ba2a4                _i3c_tgt_ibi_resp_get

.text.__NVIC_EnableIRQ%273
                0x00000000000ba2e0       0x3c
 .text.__NVIC_EnableIRQ
                0x00000000000ba2e0       0x3c build/kf_freertos_fpga/production/_ext/179497222/plib_nvic.o

.text.SER_init%274
                0x00000000000ba31c       0x3a
 .text.SER_init
                0x00000000000ba31c       0x3a build/kf_freertos_fpga/production/_ext/1420773124/serial.o
                0x00000000000ba31c                SER_init

.text.GPIO_PinDirConfig%275
                0x00000000000ba356       0x3a
 .text.GPIO_PinDirConfig
                0x00000000000ba356       0x3a build/kf_freertos_fpga/production/_ext/179282931/plib_gpio.o
                0x00000000000ba356                GPIO_PinDirConfig

.text.GPIO_PinInputConfig%276
                0x00000000000ba390       0x3a
 .text.GPIO_PinInputConfig
                0x00000000000ba390       0x3a build/kf_freertos_fpga/production/_ext/179282931/plib_gpio.o
                0x00000000000ba390                GPIO_PinInputConfig

.text.GPIO_PinGroupOutputConfig%277
                0x00000000000ba3ca       0x3a
 .text.GPIO_PinGroupOutputConfig
                0x00000000000ba3ca       0x3a build/kf_freertos_fpga/production/_ext/179282931/plib_gpio.o
                0x00000000000ba3ca                GPIO_PinGroupOutputConfig

.text.GPIO_PinMUXConfig%278
                0x00000000000ba404       0x3a
 .text.GPIO_PinMUXConfig
                0x00000000000ba404       0x3a build/kf_freertos_fpga/production/_ext/179282931/plib_gpio.o
                0x00000000000ba404                GPIO_PinMUXConfig

.text.GPIO_PinPolarityConfig%279
                0x00000000000ba43e       0x3a
 .text.GPIO_PinPolarityConfig
                0x00000000000ba43e       0x3a build/kf_freertos_fpga/production/_ext/179282931/plib_gpio.o
                0x00000000000ba43e                GPIO_PinPolarityConfig

.text.GPIO_PinOuputBufferTypeConfig%280
                0x00000000000ba478       0x3a
 .text.GPIO_PinOuputBufferTypeConfig
                0x00000000000ba478       0x3a build/kf_freertos_fpga/production/_ext/179282931/plib_gpio.o
                0x00000000000ba478                GPIO_PinOuputBufferTypeConfig

.text.GPIO_PinPullUpPullDownConfig%281
                0x00000000000ba4b2       0x3a
 .text.GPIO_PinPullUpPullDownConfig
                0x00000000000ba4b2       0x3a build/kf_freertos_fpga/production/_ext/179282931/plib_gpio.o
                0x00000000000ba4b2                GPIO_PinPullUpPullDownConfig

.text.GPIO_PinIntDetectConfig%282
                0x00000000000ba4ec       0x3a
 .text.GPIO_PinIntDetectConfig
                0x00000000000ba4ec       0x3a build/kf_freertos_fpga/production/_ext/179282931/plib_gpio.o
                0x00000000000ba4ec                GPIO_PinIntDetectConfig

.text.GPIO_PinPwrGateConfig%283
                0x00000000000ba526       0x3a
 .text.GPIO_PinPwrGateConfig
                0x00000000000ba526       0x3a build/kf_freertos_fpga/production/_ext/179282931/plib_gpio.o
                0x00000000000ba526                GPIO_PinPwrGateConfig

.text.I3C_Is_Current_Role_Master%284
                0x00000000000ba560       0x3a
 .text.I3C_Is_Current_Role_Master
                0x00000000000ba560       0x3a build/kf_freertos_fpga/production/_ext/825500651/plib_i3c.o
                0x00000000000ba560                I3C_Is_Current_Role_Master

.text.I3C_DAT_DynamicAddr_write%285
                0x00000000000ba59a       0x3a
 .text.I3C_DAT_DynamicAddr_write
                0x00000000000ba59a       0x3a build/kf_freertos_fpga/production/_ext/825500651/plib_i3c.o
                0x00000000000ba59a                I3C_DAT_DynamicAddr_write

.text._i3c_tgt_clk_to_data_turn_update%286
                0x00000000000ba5d4       0x3a
 .text._i3c_tgt_clk_to_data_turn_update
                0x00000000000ba5d4       0x3a build/kf_freertos_fpga/production/_ext/825500651/plib_i3c_private.o
                0x00000000000ba5d4                _i3c_tgt_clk_to_data_turn_update

.text.I3C_CallbackRegister%287
                0x00000000000ba610       0x38
 .text.I3C_CallbackRegister
                0x00000000000ba610       0x38 build/kf_freertos_fpga/production/_ext/825500651/plib_i3c.o
                0x00000000000ba610                I3C_CallbackRegister

.text._i3c_resp_queue_threshold_set%288
                0x00000000000ba648       0x38
 .text._i3c_resp_queue_threshold_set
                0x00000000000ba648       0x38 build/kf_freertos_fpga/production/_ext/825500651/plib_i3c_private.o
                0x00000000000ba648                _i3c_resp_queue_threshold_set

.text._i3c_bus_idle_timing_set%289
                0x00000000000ba680       0x38
 .text._i3c_bus_idle_timing_set
                0x00000000000ba680       0x38 build/kf_freertos_fpga/production/_ext/825500651/plib_i3c_private.o
                0x00000000000ba680                _i3c_bus_idle_timing_set

.text._i3c_host_dma_tx_burst_length_set%290
                0x00000000000ba6b8       0x38
 .text._i3c_host_dma_tx_burst_length_set
                0x00000000000ba6b8       0x38 build/kf_freertos_fpga/production/_ext/825500651/plib_i3c_private.o
                0x00000000000ba6b8                _i3c_host_dma_tx_burst_length_set

.text._i3c_host_dma_rx_burst_length_set%291
                0x00000000000ba6f0       0x38
 .text._i3c_host_dma_rx_burst_length_set
                0x00000000000ba6f0       0x38 build/kf_freertos_fpga/production/_ext/825500651/plib_i3c_private.o
                0x00000000000ba6f0                _i3c_host_dma_rx_burst_length_set

.text._i3c_sec_host_dma_tx_burst_length_set%292
                0x00000000000ba728       0x38
 .text._i3c_sec_host_dma_tx_burst_length_set
                0x00000000000ba728       0x38 build/kf_freertos_fpga/production/_ext/825500651/plib_i3c_private.o
                0x00000000000ba728                _i3c_sec_host_dma_tx_burst_length_set

.text._i3c_sec_host_dma_rx_burst_length_set%293
                0x00000000000ba760       0x38
 .text._i3c_sec_host_dma_rx_burst_length_set
                0x00000000000ba760       0x38 build/kf_freertos_fpga/production/_ext/825500651/plib_i3c_private.o
                0x00000000000ba760                _i3c_sec_host_dma_rx_burst_length_set

.text.vPortSetupTimerInterrupt%294
                0x00000000000ba798       0x38
 .text.vPortSetupTimerInterrupt
                0x00000000000ba798       0x38 build/kf_freertos_fpga/production/_ext/246609638/port.o
                0x00000000000ba798                vPortSetupTimerInterrupt

.text.prvResetNextTaskUnblockTime%295
                0x00000000000ba7d0       0x38
 .text.prvResetNextTaskUnblockTime
                0x00000000000ba7d0       0x38 build/kf_freertos_fpga/production/_ext/404212886/FreeRTOS_tasks.o

.text.tgt0_tx_done_cb%296
                0x00000000000ba808       0x38
 .text.tgt0_tx_done_cb
                0x00000000000ba808       0x38 build/kf_freertos_fpga/production/_ext/1521323865/tgt_test_pvt_xfer.o

.text.tgt_test_xfer_controller_write%297
                0x00000000000ba840       0x38
 .text.tgt_test_xfer_controller_write
                0x00000000000ba840       0x38 build/kf_freertos_fpga/production/_ext/1521323865/tgt_test_pvt_xfer.o

.text.DRV_I3C_Bus_Init%298
                0x00000000000ba878       0x36
 .text.DRV_I3C_Bus_Init
                0x00000000000ba878       0x36 build/kf_freertos_fpga/production/_ext/101992513/drv_i3c_config.o
                0x00000000000ba878                DRV_I3C_Bus_Init

.text._i3c_host_port_set%299
                0x00000000000ba8ae       0x36
 .text._i3c_host_port_set
                0x00000000000ba8ae       0x36 build/kf_freertos_fpga/production/_ext/825500651/plib_i3c_private.o
                0x00000000000ba8ae                _i3c_host_port_set

.text._i3c_sec_host_port_set%300
                0x00000000000ba8e4       0x36
 .text._i3c_sec_host_port_set
                0x00000000000ba8e4       0x36 build/kf_freertos_fpga/production/_ext/825500651/plib_i3c_private.o
                0x00000000000ba8e4                _i3c_sec_host_port_set

.text.uart_pins_init%301
                0x00000000000ba91a       0x36
 .text.uart_pins_init
                0x00000000000ba91a       0x36 build/kf_freertos_fpga/production/_ext/1732944825/uart_api.o
                0x00000000000ba91a                uart_pins_init

.text.p_uart_config_sel_reg_set%302
                0x00000000000ba950       0x36
 .text.p_uart_config_sel_reg_set
                0x00000000000ba950       0x36 build/kf_freertos_fpga/production/_ext/1732944825/uart_perphl.o
                0x00000000000ba950                p_uart_config_sel_reg_set

.rodata%303     0x00000000000ba988       0x34
 .rodata        0x00000000000ba988       0x34 build/kf_freertos_fpga/production/_ext/101992513/drv_i3c_config.o

.text.I3C_Controller_Clk_Cfg%304
                0x00000000000ba9bc       0x34
 .text.I3C_Controller_Clk_Cfg
                0x00000000000ba9bc       0x34 build/kf_freertos_fpga/production/_ext/825500651/plib_i3c.o
                0x00000000000ba9bc                I3C_Controller_Clk_Cfg

.text.I3C_Target_Interrupts_Init%305
                0x00000000000ba9f0       0x34
 .text.I3C_Target_Interrupts_Init
                0x00000000000ba9f0       0x34 build/kf_freertos_fpga/production/_ext/825500651/plib_i3c.o
                0x00000000000ba9f0                I3C_Target_Interrupts_Init

.text.I3C_Controller_Interrupts_Init%306
                0x00000000000baa24       0x34
 .text.I3C_Controller_Interrupts_Init
                0x00000000000baa24       0x34 build/kf_freertos_fpga/production/_ext/825500651/plib_i3c.o
                0x00000000000baa24                I3C_Controller_Interrupts_Init

.text._i3c_static_addr_set%307
                0x00000000000baa58       0x34
 .text._i3c_static_addr_set
                0x00000000000baa58       0x34 build/kf_freertos_fpga/production/_ext/825500651/plib_i3c_private.o
                0x00000000000baa58                _i3c_static_addr_set

.text._i3c_DAT_write%308
                0x00000000000baa8c       0x34
 .text._i3c_DAT_write
                0x00000000000baa8c       0x34 build/kf_freertos_fpga/production/_ext/825500651/plib_i3c_private.o
                0x00000000000baa8c                _i3c_DAT_write

.text._i3c_DAT_read%309
                0x00000000000baac0       0x34
 .text._i3c_DAT_read
                0x00000000000baac0       0x34 build/kf_freertos_fpga/production/_ext/825500651/plib_i3c_private.o
                0x00000000000baac0                _i3c_DAT_read

.text.vPortEnterCritical%310
                0x00000000000baaf4       0x34
 .text.vPortEnterCritical
                0x00000000000baaf4       0x34 build/kf_freertos_fpga/production/_ext/246609638/port.o
                0x00000000000baaf4                vPortEnterCritical

.text.vPortExitCritical%311
                0x00000000000bab28       0x34
 .text.vPortExitCritical
                0x00000000000bab28       0x34 build/kf_freertos_fpga/production/_ext/246609638/port.o
                0x00000000000bab28                vPortExitCritical

.text.prvInitialiseMutex%312
                0x00000000000bab5c       0x34
 .text.prvInitialiseMutex
                0x00000000000bab5c       0x34 build/kf_freertos_fpga/production/_ext/404212886/queue.o

.text.__pic32c_data_initialization%313
                0x00000000000bab90       0x34
 .text.__pic32c_data_initialization
                0x00000000000bab90       0x34 c:/program files/microchip/xc32/v4.45/bin/bin/../../lib/gcc/pic32c/8.3.1/../../../../pic32c/lib/thumb/v7e-m+fp/hard\libpic32c.a(data_init.o)
                0x00000000000bab90                __pic32c_data_initialization

.text._drv_dct_info_init%314
                0x00000000000babc4       0x32
 .text._drv_dct_info_init
                0x00000000000babc4       0x32 build/kf_freertos_fpga/production/_ext/101992513/drv_i3c.o

.text.i3c_do_ccc%315
                0x00000000000babf6       0x32
 .text.i3c_do_ccc
                0x00000000000babf6       0x32 build/kf_freertos_fpga/production/_ext/1886205328/i3c_ccc.o

.text.uart_transmit%316
                0x00000000000bac28       0x32
 .text.uart_transmit
                0x00000000000bac28       0x32 build/kf_freertos_fpga/production/_ext/1732944825/uart_api.o
                0x00000000000bac28                uart_transmit

.text.i3c_target_register%317
                0x00000000000bac5a       0x32
 .text.i3c_target_register
                0x00000000000bac5a       0x32 build/kf_freertos_fpga/production/_ext/1521323865/tgt_test_pvt_xfer.o

.text._trace_puts%318
                0x00000000000bac8c       0x30
 .text._trace_puts
                0x00000000000bac8c       0x30 build/kf_freertos_fpga/production/_ext/1420773124/trace.o
                0x00000000000bac8c                _trace_puts

.text.i3c_device_find%319
                0x00000000000bacbc       0x30
 .text.i3c_device_find
                0x00000000000bacbc       0x30 build/kf_freertos_fpga/production/_ext/101992513/drv_i3c.o

.text.i3c_ccc_do_rstdaa_all%320
                0x00000000000bacec       0x30
 .text.i3c_ccc_do_rstdaa_all
                0x00000000000bacec       0x30 build/kf_freertos_fpga/production/_ext/1886205328/i3c_ccc.o
                0x00000000000bacec                i3c_ccc_do_rstdaa_all

.text.ECIA_Initialize%321
                0x00000000000bad1c       0x30
 .text.ECIA_Initialize
                0x00000000000bad1c       0x30 build/kf_freertos_fpga/production/_ext/179210842/plib_ecia.o
                0x00000000000bad1c                ECIA_Initialize

.text._i3c_ibi_data_threshold_set%322
                0x00000000000bad4c       0x30
 .text._i3c_ibi_data_threshold_set
                0x00000000000bad4c       0x30 build/kf_freertos_fpga/production/_ext/825500651/plib_i3c_private.o
                0x00000000000bad4c                _i3c_ibi_data_threshold_set

.text._i3c_ibi_status_threshold_set%323
                0x00000000000bad7c       0x30
 .text._i3c_ibi_status_threshold_set
                0x00000000000bad7c       0x30 build/kf_freertos_fpga/production/_ext/825500651/plib_i3c_private.o
                0x00000000000bad7c                _i3c_ibi_status_threshold_set

.text._i3c_rx_buf_threshold_set%324
                0x00000000000badac       0x30
 .text._i3c_rx_buf_threshold_set
                0x00000000000badac       0x30 build/kf_freertos_fpga/production/_ext/825500651/plib_i3c_private.o
                0x00000000000badac                _i3c_rx_buf_threshold_set

.text._i3c_tx_start_threshold_set%325
                0x00000000000baddc       0x30
 .text._i3c_tx_start_threshold_set
                0x00000000000baddc       0x30 build/kf_freertos_fpga/production/_ext/825500651/plib_i3c_private.o
                0x00000000000baddc                _i3c_tx_start_threshold_set

.text._i3c_rx_start_threshold_set%326
                0x00000000000bae0c       0x30
 .text._i3c_rx_start_threshold_set
                0x00000000000bae0c       0x30 build/kf_freertos_fpga/production/_ext/825500651/plib_i3c_private.o
                0x00000000000bae0c                _i3c_rx_start_threshold_set

.text._i3c_xfer_err_sts_clr%327
                0x00000000000bae3c       0x30
 .text._i3c_xfer_err_sts_clr
                0x00000000000bae3c       0x30 build/kf_freertos_fpga/production/_ext/825500651/plib_i3c_private.o
                0x00000000000bae3c                _i3c_xfer_err_sts_clr

.text._i3c_sec_host_tx_dma_tout_config%328
                0x00000000000bae6c       0x30
 .text._i3c_sec_host_tx_dma_tout_config
                0x00000000000bae6c       0x30 build/kf_freertos_fpga/production/_ext/825500651/plib_i3c_private.o
                0x00000000000bae6c                _i3c_sec_host_tx_dma_tout_config

.text._i3c_sec_host_rx_dma_tout_config%329
                0x00000000000bae9c       0x30
 .text._i3c_sec_host_rx_dma_tout_config
                0x00000000000bae9c       0x30 build/kf_freertos_fpga/production/_ext/825500651/plib_i3c_private.o
                0x00000000000bae9c                _i3c_sec_host_rx_dma_tout_config

.text._i3c_dev_addr_table_ptr_get%330
                0x00000000000baecc       0x30
 .text._i3c_dev_addr_table_ptr_get
                0x00000000000baecc       0x30 build/kf_freertos_fpga/production/_ext/825500651/plib_i3c_private.o
                0x00000000000baecc                _i3c_dev_addr_table_ptr_get

.text._i3c_soft_reset%331
                0x00000000000baefc       0x30
 .text._i3c_soft_reset
                0x00000000000baefc       0x30 build/kf_freertos_fpga/production/_ext/825500651/plib_i3c_private.o
                0x00000000000baefc                _i3c_soft_reset

.text._i3c_tgt_MRL_updated%332
                0x00000000000baf2c       0x30
 .text._i3c_tgt_MRL_updated
                0x00000000000baf2c       0x30 build/kf_freertos_fpga/production/_ext/825500651/plib_i3c_private.o
                0x00000000000baf2c                _i3c_tgt_MRL_updated

.text._i3c_tgt_MWL_updated%333
                0x00000000000baf5c       0x30
 .text._i3c_tgt_MWL_updated
                0x00000000000baf5c       0x30 build/kf_freertos_fpga/production/_ext/825500651/plib_i3c_private.o
                0x00000000000baf5c                _i3c_tgt_MWL_updated

.text.prvTaskExitError%334
                0x00000000000baf8c       0x30
 .text.prvTaskExitError
                0x00000000000baf8c       0x30 build/kf_freertos_fpga/production/_ext/246609638/port.o

.text.xQueueCreateMutex%335
                0x00000000000bafbc       0x30
 .text.xQueueCreateMutex
                0x00000000000bafbc       0x30 build/kf_freertos_fpga/production/_ext/404212886/queue.o
                0x00000000000bafbc                xQueueCreateMutex

.text.prvGetDisinheritPriorityAfterTimeout%336
                0x00000000000bafec       0x30
 .text.prvGetDisinheritPriorityAfterTimeout
                0x00000000000bafec       0x30 build/kf_freertos_fpga/production/_ext/404212886/queue.o

.text.prvIsQueueFull%337
                0x00000000000bb01c       0x30
 .text.prvIsQueueFull
                0x00000000000bb01c       0x30 build/kf_freertos_fpga/production/_ext/404212886/queue.o

.text.prvIdleTask%338
                0x00000000000bb04c       0x30
 .text.prvIdleTask
                0x00000000000bb04c       0x30 build/kf_freertos_fpga/production/_ext/404212886/FreeRTOS_tasks.o

.text.i3c_transfer%339
                0x00000000000bb07c       0x30
 .text.i3c_transfer
                0x00000000000bb07c       0x30 build/kf_freertos_fpga/production/_ext/1521323865/test_pvt_xfer.o

.text.tgt0_read_requested_cb%340
                0x00000000000bb0ac       0x30
 .text.tgt0_read_requested_cb
                0x00000000000bb0ac       0x30 build/kf_freertos_fpga/production/_ext/1521323865/tgt_test_pvt_xfer.o

.text.tgt0_read_processed_cb%341
                0x00000000000bb0dc       0x30
 .text.tgt0_read_processed_cb
                0x00000000000bb0dc       0x30 build/kf_freertos_fpga/production/_ext/1521323865/tgt_test_pvt_xfer.o

.text.tgt_test_xfer_controller_read%342
                0x00000000000bb10c       0x30
 .text.tgt_test_xfer_controller_read
                0x00000000000bb10c       0x30 build/kf_freertos_fpga/production/_ext/1521323865/tgt_test_pvt_xfer.o

.text.sendchar%343
                0x00000000000bb13c       0x2e
 .text.sendchar
                0x00000000000bb13c       0x2e build/kf_freertos_fpga/production/_ext/1420773124/serial.o
                0x00000000000bb13c                sendchar

.text.mini_strlen%344
                0x00000000000bb16a       0x2e
 .text.mini_strlen
                0x00000000000bb16a       0x2e build/kf_freertos_fpga/production/_ext/1420773124/trace.o

.text.DRV_I3C_target_unregister%345
                0x00000000000bb198       0x2e
 .text.DRV_I3C_target_unregister
                0x00000000000bb198       0x2e build/kf_freertos_fpga/production/_ext/101992513/drv_i3c.o
                0x00000000000bb198                DRV_I3C_target_unregister

.text.i3c_do_daa%346
                0x00000000000bb1c6       0x2e
 .text.i3c_do_daa
                0x00000000000bb1c6       0x2e build/kf_freertos_fpga/production/_ext/1886205328/i3c_common.o

.text.i3c_addr_slots_is_free%347
                0x00000000000bb1f4       0x2e
 .text.i3c_addr_slots_is_free
                0x00000000000bb1f4       0x2e build/kf_freertos_fpga/production/_ext/1886205328/i3c_common.o
                0x00000000000bb1f4                i3c_addr_slots_is_free

.text.I3C_Is_Current_Role_BusMaster%348
                0x00000000000bb222       0x2e
 .text.I3C_Is_Current_Role_BusMaster
                0x00000000000bb222       0x2e build/kf_freertos_fpga/production/_ext/825500651/plib_i3c.o
                0x00000000000bb222                I3C_Is_Current_Role_BusMaster

.text.I3C_TGT_IBI_MR_Raise%349
                0x00000000000bb250       0x2e
 .text.I3C_TGT_IBI_MR_Raise
                0x00000000000bb250       0x2e build/kf_freertos_fpga/production/_ext/825500651/plib_i3c.o
                0x00000000000bb250                I3C_TGT_IBI_MR_Raise

.text._i3c_cmd_queue_threshold_set%350
                0x00000000000bb27e       0x2e
 .text._i3c_cmd_queue_threshold_set
                0x00000000000bb27e       0x2e build/kf_freertos_fpga/production/_ext/825500651/plib_i3c_private.o
                0x00000000000bb27e                _i3c_cmd_queue_threshold_set

.text._i3c_tx_buf_threshold_set%351
                0x00000000000bb2ac       0x2e
 .text._i3c_tx_buf_threshold_set
                0x00000000000bb2ac       0x2e build/kf_freertos_fpga/production/_ext/825500651/plib_i3c_private.o
                0x00000000000bb2ac                _i3c_tx_buf_threshold_set

.text.p_uart_line_control_reg_get%352
                0x00000000000bb2da       0x2e
 .text.p_uart_line_control_reg_get
                0x00000000000bb2da       0x2e build/kf_freertos_fpga/production/_ext/1732944825/uart_perphl.o
                0x00000000000bb2da                p_uart_line_control_reg_get

.text._drv_wait_for_response%353
                0x00000000000bb308       0x2c
 .text._drv_wait_for_response
                0x00000000000bb308       0x2c build/kf_freertos_fpga/production/_ext/101992513/drv_i3c.o

.text.OSAL_CRIT_Enter%354
                0x00000000000bb334       0x2c
 .text.OSAL_CRIT_Enter
                0x00000000000bb334       0x2c build/kf_freertos_fpga/production/_ext/785111490/osal_freertos.o
                0x00000000000bb334                OSAL_CRIT_Enter

.text.OSAL_CRIT_Leave%355
                0x00000000000bb360       0x2c
 .text.OSAL_CRIT_Leave
                0x00000000000bb360       0x2c build/kf_freertos_fpga/production/_ext/785111490/osal_freertos.o
                0x00000000000bb360                OSAL_CRIT_Leave

.text._i3c_intr_IBI_enable%356
                0x00000000000bb38c       0x2c
 .text._i3c_intr_IBI_enable
                0x00000000000bb38c       0x2c build/kf_freertos_fpga/production/_ext/825500651/plib_i3c_private.o
                0x00000000000bb38c                _i3c_intr_IBI_enable

.text._i3c_intr_IBI_disable%357
                0x00000000000bb3b8       0x2c
 .text._i3c_intr_IBI_disable
                0x00000000000bb3b8       0x2c build/kf_freertos_fpga/production/_ext/825500651/plib_i3c_private.o
                0x00000000000bb3b8                _i3c_intr_IBI_disable

.text._i3c_ibi_status_count_get%358
                0x00000000000bb3e4       0x2c
 .text._i3c_ibi_status_count_get
                0x00000000000bb3e4       0x2c build/kf_freertos_fpga/production/_ext/825500651/plib_i3c_private.o
                0x00000000000bb3e4                _i3c_ibi_status_count_get

.text._i3c_disable%359
                0x00000000000bb410       0x2c
 .text._i3c_disable
                0x00000000000bb410       0x2c build/kf_freertos_fpga/production/_ext/825500651/plib_i3c_private.o
                0x00000000000bb410                _i3c_disable

.text._i3c_hot_join_disable%360
                0x00000000000bb43c       0x2c
 .text._i3c_hot_join_disable
                0x00000000000bb43c       0x2c build/kf_freertos_fpga/production/_ext/825500651/plib_i3c_private.o
                0x00000000000bb43c                _i3c_hot_join_disable

.text._i3c_tgt_hot_join_disable%361
                0x00000000000bb468       0x2c
 .text._i3c_tgt_hot_join_disable
                0x00000000000bb468       0x2c build/kf_freertos_fpga/production/_ext/825500651/plib_i3c_private.o
                0x00000000000bb468                _i3c_tgt_hot_join_disable

.text._i3c_xfers_reset%362
                0x00000000000bb494       0x2c
 .text._i3c_xfers_reset
                0x00000000000bb494       0x2c build/kf_freertos_fpga/production/_ext/825500651/plib_i3c_private.o
                0x00000000000bb494                _i3c_xfers_reset

.text._i3c_rx_fifo_depth_get%363
                0x00000000000bb4c0       0x2c
 .text._i3c_rx_fifo_depth_get
                0x00000000000bb4c0       0x2c build/kf_freertos_fpga/production/_ext/825500651/plib_i3c_private.o
                0x00000000000bb4c0                _i3c_rx_fifo_depth_get

.text._i3c_tgt_raise_ibi_MR%364
                0x00000000000bb4ec       0x2c
 .text._i3c_tgt_raise_ibi_MR
                0x00000000000bb4ec       0x2c build/kf_freertos_fpga/production/_ext/825500651/plib_i3c_private.o
                0x00000000000bb4ec                _i3c_tgt_raise_ibi_MR

.text.prvPortStartFirstTask%365
                0x00000000000bb518       0x2c
 .text.prvPortStartFirstTask
                0x00000000000bb518       0x2c build/kf_freertos_fpga/production/_ext/246609638/port.o

.text.prvIsQueueEmpty%366
                0x00000000000bb544       0x2c
 .text.prvIsQueueEmpty
                0x00000000000bb544       0x2c build/kf_freertos_fpga/production/_ext/404212886/queue.o

.text.vTaskPlaceOnEventList%367
                0x00000000000bb570       0x2c
 .text.vTaskPlaceOnEventList
                0x00000000000bb570       0x2c build/kf_freertos_fpga/production/_ext/404212886/FreeRTOS_tasks.o
                0x00000000000bb570                vTaskPlaceOnEventList

.text.vTaskInternalSetTimeOutState%368
                0x00000000000bb59c       0x2c
 .text.vTaskInternalSetTimeOutState
                0x00000000000bb59c       0x2c build/kf_freertos_fpga/production/_ext/404212886/FreeRTOS_tasks.o
                0x00000000000bb59c                vTaskInternalSetTimeOutState

.text.tgt0_write_requested_cb%369
                0x00000000000bb5c8       0x2c
 .text.tgt0_write_requested_cb
                0x00000000000bb5c8       0x2c build/kf_freertos_fpga/production/_ext/1521323865/tgt_test_pvt_xfer.o

.text.tgt0_stop_cb%370
                0x00000000000bb5f4       0x2c
 .text.tgt0_stop_cb
                0x00000000000bb5f4       0x2c build/kf_freertos_fpga/production/_ext/1521323865/tgt_test_pvt_xfer.o

.text.OSAL_SEM_Post%371
                0x00000000000bb620       0x2a
 .text.OSAL_SEM_Post
                0x00000000000bb620       0x2a build/kf_freertos_fpga/production/_ext/785111490/osal_freertos.o
                0x00000000000bb620                OSAL_SEM_Post

.text.I3C_DO_Xfer%372
                0x00000000000bb64a       0x2a
 .text.I3C_DO_Xfer
                0x00000000000bb64a       0x2a build/kf_freertos_fpga/production/_ext/825500651/plib_i3c.o
                0x00000000000bb64a                I3C_DO_Xfer

.text._i3c_tx_fifo_depth_get%373
                0x00000000000bb674       0x2a
 .text._i3c_tx_fifo_depth_get
                0x00000000000bb674       0x2a build/kf_freertos_fpga/production/_ext/825500651/plib_i3c_private.o
                0x00000000000bb674                _i3c_tx_fifo_depth_get

.text._i3c_tgt_SIR_enabled%374
                0x00000000000bb69e       0x2a
 .text._i3c_tgt_SIR_enabled
                0x00000000000bb69e       0x2a build/kf_freertos_fpga/production/_ext/825500651/plib_i3c_private.o
                0x00000000000bb69e                _i3c_tgt_SIR_enabled

.text._i3c_tgt_MR_enabled%375
                0x00000000000bb6c8       0x2a
 .text._i3c_tgt_MR_enabled
                0x00000000000bb6c8       0x2a build/kf_freertos_fpga/production/_ext/825500651/plib_i3c_private.o
                0x00000000000bb6c8                _i3c_tgt_MR_enabled

.rodata%376     0x00000000000bb6f4       0x28
 .rodata        0x00000000000bb6f4       0x28 build/kf_freertos_fpga/production/_ext/1420773124/trace.o

.text.ECIA_GIRQBlockEnable%377
                0x00000000000bb71c       0x28
 .text.ECIA_GIRQBlockEnable
                0x00000000000bb71c       0x28 build/kf_freertos_fpga/production/_ext/179210842/plib_ecia.o
                0x00000000000bb71c                ECIA_GIRQBlockEnable

.text.I3C_DCT_read%378
                0x00000000000bb744       0x28
 .text.I3C_DCT_read
                0x00000000000bb744       0x28 build/kf_freertos_fpga/production/_ext/825500651/plib_i3c.o
                0x00000000000bb744                I3C_DCT_read

.text.I3C_SDCT_read%379
                0x00000000000bb76c       0x28
 .text.I3C_SDCT_read
                0x00000000000bb76c       0x28 build/kf_freertos_fpga/production/_ext/825500651/plib_i3c.o
                0x00000000000bb76c                I3C_SDCT_read

.text.I3C_TGT_RoleSwitch_Resume%380
                0x00000000000bb794       0x28
 .text.I3C_TGT_RoleSwitch_Resume
                0x00000000000bb794       0x28 build/kf_freertos_fpga/production/_ext/825500651/plib_i3c.o
                0x00000000000bb794                I3C_TGT_RoleSwitch_Resume

.text._i3c_dynamic_addr_set%381
                0x00000000000bb7bc       0x28
 .text._i3c_dynamic_addr_set
                0x00000000000bb7bc       0x28 build/kf_freertos_fpga/production/_ext/825500651/plib_i3c_private.o
                0x00000000000bb7bc                _i3c_dynamic_addr_set

.text._i3c_cmd_fifo_depth_get%382
                0x00000000000bb7e4       0x28
 .text._i3c_cmd_fifo_depth_get
                0x00000000000bb7e4       0x28 build/kf_freertos_fpga/production/_ext/825500651/plib_i3c_private.o
                0x00000000000bb7e4                _i3c_cmd_fifo_depth_get

.text._i3c_resp_fifo_depth_get%383
                0x00000000000bb80c       0x28
 .text._i3c_resp_fifo_depth_get
                0x00000000000bb80c       0x28 build/kf_freertos_fpga/production/_ext/825500651/plib_i3c_private.o
                0x00000000000bb80c                _i3c_resp_fifo_depth_get

.text._i3c_ibi_fifo_depth_get%384
                0x00000000000bb834       0x28
 .text._i3c_ibi_fifo_depth_get
                0x00000000000bb834       0x28 build/kf_freertos_fpga/production/_ext/825500651/plib_i3c_private.o
                0x00000000000bb834                _i3c_ibi_fifo_depth_get

.text.uart_id_is_valid%385
                0x00000000000bb85c       0x28
 .text.uart_id_is_valid
                0x00000000000bb85c       0x28 build/kf_freertos_fpga/production/_ext/1732944825/uart_api.o

.text.vPortSVCHandler%386
                0x00000000000bb890       0x28
 .text.vPortSVCHandler
                0x00000000000bb890       0x28 build/kf_freertos_fpga/production/_ext/246609638/port.o
                0x00000000000bb890                vPortSVCHandler

.text.pvTaskIncrementMutexHeldCount%387
                0x00000000000bb8b8       0x28
 .text.pvTaskIncrementMutexHeldCount
                0x00000000000bb8b8       0x28 build/kf_freertos_fpga/production/_ext/404212886/FreeRTOS_tasks.o
                0x00000000000bb8b8                pvTaskIncrementMutexHeldCount

.text.set_event_from_isr%388
                0x00000000000bb8e0       0x28
 .text.set_event_from_isr
                0x00000000000bb8e0       0x28 build/kf_freertos_fpga/production/_ext/1360937237/task1.o
                0x00000000000bb8e0                set_event_from_isr

.text.i3c_ibi_has_payload%389
                0x00000000000bb908       0x26
 .text.i3c_ibi_has_payload
                0x00000000000bb908       0x26 build/kf_freertos_fpga/production/_ext/101992513/drv_i3c.o

.text.i3c_device_is_ibi_capable%390
                0x00000000000bb92e       0x26
 .text.i3c_device_is_ibi_capable
                0x00000000000bb92e       0x26 build/kf_freertos_fpga/production/_ext/101992513/drv_i3c.o

.text._i3c_resp_buf_level_get%391
                0x00000000000bb954       0x26
 .text._i3c_resp_buf_level_get
                0x00000000000bb954       0x26 build/kf_freertos_fpga/production/_ext/825500651/plib_i3c_private.o
                0x00000000000bb954                _i3c_resp_buf_level_get

.text.tracex%392
                0x00000000000bb97a       0x24
 .text.tracex   0x00000000000bb97a       0x24 build/kf_freertos_fpga/production/_ext/1420773124/trace.o
                0x00000000000bb97a                tracex

.text.DRV_I3C_device_find%393
                0x00000000000bb99e       0x24
 .text.DRV_I3C_device_find
                0x00000000000bb99e       0x24 build/kf_freertos_fpga/production/_ext/101992513/drv_i3c.o
                0x00000000000bb99e                DRV_I3C_device_find

.text.DRV_I3C_target_register%394
                0x00000000000bb9c2       0x24
 .text.DRV_I3C_target_register
                0x00000000000bb9c2       0x24 build/kf_freertos_fpga/production/_ext/101992513/drv_i3c.o
                0x00000000000bb9c2                DRV_I3C_target_register

.text._i3c_operation_mode_set%395
                0x00000000000bb9e6       0x24
 .text._i3c_operation_mode_set
                0x00000000000bb9e6       0x24 build/kf_freertos_fpga/production/_ext/825500651/plib_i3c_private.o
                0x00000000000bb9e6                _i3c_operation_mode_set

.rodata%396     0x00000000000bba0c       0x24
 .rodata        0x00000000000bba0c       0x24 build/kf_freertos_fpga/production/_ext/29258880/tasks.o

.text.prvTimerTask%397
                0x00000000000bba30       0x24
 .text.prvTimerTask
                0x00000000000bba30       0x24 build/kf_freertos_fpga/production/_ext/404212886/timers.o

.text.small_wait_with_nops%398
                0x00000000000bba54       0x22
 .text.small_wait_with_nops
                0x00000000000bba54       0x22 build/kf_freertos_fpga/production/_ext/101992513/drv_i3c.o
                0x00000000000bba54                small_wait_with_nops

.text.sys_slist_is_empty%399
                0x00000000000bba76       0x22
 .text.sys_slist_is_empty
                0x00000000000bba76       0x22 build/kf_freertos_fpga/production/_ext/1886205328/i3c_common.o

.text.sys_slist_peek_next%400
                0x00000000000bba98       0x22
 .text.sys_slist_peek_next
                0x00000000000bba98       0x22 build/kf_freertos_fpga/production/_ext/1886205328/i3c_common.o

.text.I3C_Is_Current_Role_Primary%401
                0x00000000000bbaba       0x22
 .text.I3C_Is_Current_Role_Primary
                0x00000000000bbaba       0x22 build/kf_freertos_fpga/production/_ext/825500651/plib_i3c.o
                0x00000000000bbaba                I3C_Is_Current_Role_Primary

.text._i3c_notify_sir_reject%402
                0x00000000000bbadc       0x22
 .text._i3c_notify_sir_reject
                0x00000000000bbadc       0x22 build/kf_freertos_fpga/production/_ext/825500651/plib_i3c_private.o
                0x00000000000bbadc                _i3c_notify_sir_reject

.text._i3c_notify_mr_reject%403
                0x00000000000bbafe       0x22
 .text._i3c_notify_mr_reject
                0x00000000000bbafe       0x22 build/kf_freertos_fpga/production/_ext/825500651/plib_i3c_private.o
                0x00000000000bbafe                _i3c_notify_mr_reject

.text._i3c_dev_operation_mode_get%404
                0x00000000000bbb20       0x22
 .text._i3c_dev_operation_mode_get
                0x00000000000bbb20       0x22 build/kf_freertos_fpga/production/_ext/825500651/plib_i3c_private.o
                0x00000000000bbb20                _i3c_dev_operation_mode_get

.text._i3c_tgt_dyn_addr_get%405
                0x00000000000bbb42       0x22
 .text._i3c_tgt_dyn_addr_get
                0x00000000000bbb42       0x22 build/kf_freertos_fpga/production/_ext/825500651/plib_i3c_private.o
                0x00000000000bbb42                _i3c_tgt_dyn_addr_get

.text._i3c_tgt_MRL_get%406
                0x00000000000bbb64       0x22
 .text._i3c_tgt_MRL_get
                0x00000000000bbb64       0x22 build/kf_freertos_fpga/production/_ext/825500651/plib_i3c_private.o
                0x00000000000bbb64                _i3c_tgt_MRL_get

.text.tgt_test_xfers_all%407
                0x00000000000bbb86       0x22
 .text.tgt_test_xfers_all
                0x00000000000bbb86       0x22 build/kf_freertos_fpga/production/_ext/1521323865/tgt_test_pvt_xfer.o
                0x00000000000bbb86                tgt_test_xfers_all

.text.i3c_addr_slots_mark_i3c%408
                0x00000000000bbba8       0x20
 .text.i3c_addr_slots_mark_i3c
                0x00000000000bbba8       0x20 build/kf_freertos_fpga/production/_ext/101992513/drv_i3c.o

.text.i3c_addr_slots_mark_free%409
                0x00000000000bbbc8       0x20
 .text.i3c_addr_slots_mark_free
                0x00000000000bbbc8       0x20 build/kf_freertos_fpga/production/_ext/1886205328/i3c_common.o

.text.i3c_addr_slots_mark_i3c%410
                0x00000000000bbbe8       0x20
 .text.i3c_addr_slots_mark_i3c
                0x00000000000bbbe8       0x20 build/kf_freertos_fpga/production/_ext/1886205328/i3c_common.o

.text.i3c_addr_slots_mark_i2c%411
                0x00000000000bbc08       0x20
 .text.i3c_addr_slots_mark_i2c
                0x00000000000bbc08       0x20 build/kf_freertos_fpga/production/_ext/1886205328/i3c_common.o

.text.sys_slist_init%412
                0x00000000000bbc28       0x20
 .text.sys_slist_init
                0x00000000000bbc28       0x20 build/kf_freertos_fpga/production/_ext/1886205328/i3c_common.o

.text._i3c_ibi_queue_status_get%413
                0x00000000000bbc48       0x20
 .text._i3c_ibi_queue_status_get
                0x00000000000bbc48       0x20 build/kf_freertos_fpga/production/_ext/825500651/plib_i3c_private.o
                0x00000000000bbc48                _i3c_ibi_queue_status_get

.text._i3c_resume%414
                0x00000000000bbc68       0x20
 .text._i3c_resume
                0x00000000000bbc68       0x20 build/kf_freertos_fpga/production/_ext/825500651/plib_i3c_private.o
                0x00000000000bbc68                _i3c_resume

.text._i2c_slave_present_set%415
                0x00000000000bbc88       0x20
 .text._i2c_slave_present_set
                0x00000000000bbc88       0x20 build/kf_freertos_fpga/production/_ext/825500651/plib_i3c_private.o
                0x00000000000bbc88                _i2c_slave_present_set

.text._i3c_dev_controller_role_get%416
                0x00000000000bbca8       0x20
 .text._i3c_dev_controller_role_get
                0x00000000000bbca8       0x20 build/kf_freertos_fpga/production/_ext/825500651/plib_i3c_private.o
                0x00000000000bbca8                _i3c_dev_controller_role_get

.text._i3c_dev_role_config_get%417
                0x00000000000bbcc8       0x20
 .text._i3c_dev_role_config_get
                0x00000000000bbcc8       0x20 build/kf_freertos_fpga/production/_ext/825500651/plib_i3c_private.o
                0x00000000000bbcc8                _i3c_dev_role_config_get

.text._i3c_tgt_MWL_get%418
                0x00000000000bbce8       0x20
 .text._i3c_tgt_MWL_get
                0x00000000000bbce8       0x20 build/kf_freertos_fpga/production/_ext/825500651/plib_i3c_private.o
                0x00000000000bbce8                _i3c_tgt_MWL_get

.text.xTaskGetTickCount%419
                0x00000000000bbd08       0x20
 .text.xTaskGetTickCount
                0x00000000000bbd08       0x20 build/kf_freertos_fpga/production/_ext/404212886/FreeRTOS_tasks.o
                0x00000000000bbd08                xTaskGetTickCount

.text.prvDeleteTCB%420
                0x00000000000bbd28       0x20
 .text.prvDeleteTCB
                0x00000000000bbd28       0x20 build/kf_freertos_fpga/production/_ext/404212886/FreeRTOS_tasks.o

.text.TASK3_Tasks%421
                0x00000000000bbd48       0x20
 .text.TASK3_Tasks
                0x00000000000bbd48       0x20 build/kf_freertos_fpga/production/_ext/1360937237/task3.o
                0x00000000000bbd48                TASK3_Tasks

.text.I3C_Thresholds_Response_buf_set%422
                0x00000000000bbd68       0x1e
 .text.I3C_Thresholds_Response_buf_set
                0x00000000000bbd68       0x1e build/kf_freertos_fpga/production/_ext/825500651/plib_i3c.o
                0x00000000000bbd68                I3C_Thresholds_Response_buf_set

.text.I3C_DAT_info_get%423
                0x00000000000bbd86       0x1e
 .text.I3C_DAT_info_get
                0x00000000000bbd86       0x1e build/kf_freertos_fpga/production/_ext/825500651/plib_i3c.o
                0x00000000000bbd86                I3C_DAT_info_get

.text.I3C_DCT_info_get%424
                0x00000000000bbda4       0x1e
 .text.I3C_DCT_info_get
                0x00000000000bbda4       0x1e build/kf_freertos_fpga/production/_ext/825500651/plib_i3c.o
                0x00000000000bbda4                I3C_DCT_info_get

.text._i3c_notify_hj_reject%425
                0x00000000000bbdc2       0x1e
 .text._i3c_notify_hj_reject
                0x00000000000bbdc2       0x1e build/kf_freertos_fpga/production/_ext/825500651/plib_i3c_private.o
                0x00000000000bbdc2                _i3c_notify_hj_reject

.text._i3c_scl_low_mst_tout_set%426
                0x00000000000bbde0       0x1e
 .text._i3c_scl_low_mst_tout_set
                0x00000000000bbde0       0x1e build/kf_freertos_fpga/production/_ext/825500651/plib_i3c_private.o
                0x00000000000bbde0                _i3c_scl_low_mst_tout_set

.text.vApplicationStackOverflowHook%427
                0x00000000000bbdfe       0x1e
 .text.vApplicationStackOverflowHook
                0x00000000000bbdfe       0x1e build/kf_freertos_fpga/production/_ext/29258880/freertos_hooks.o
                0x00000000000bbdfe                vApplicationStackOverflowHook

.text%428       0x00000000000bbe1c       0x1e
 .text          0x00000000000bbe1c       0x1e c:/program files/microchip/xc32/v4.45/bin/bin/../../lib/gcc/pic32c/8.3.1/thumb/v7e-m+fp/hard\libgcc.a(_paritysi2.o)
                0x00000000000bbe1c                __paritysi2

.text.__dinit_copy%429
                0x00000000000bbe3a       0x1e
 .text.__dinit_copy
                0x00000000000bbe3a       0x1e c:/program files/microchip/xc32/v4.45/bin/bin/../../lib/gcc/pic32c/8.3.1/../../../../pic32c/lib/thumb/v7e-m+fp/hard\libpic32c.a(pic32_data_init_copy.o)
                0x00000000000bbe3a                __dinit_copy_needed
                0x00000000000bbe3a                __dinit_copy

.rodata.__FUNCTION__.11700%430
                0x00000000000bbe58       0x1c
 .rodata.__FUNCTION__.11700
                0x00000000000bbe58       0x1c build/kf_freertos_fpga/production/_ext/101992513/drv_i3c.o

.rodata.__FUNCTION__.11849%431
                0x00000000000bbe74       0x1c
 .rodata.__FUNCTION__.11849
                0x00000000000bbe74       0x1c build/kf_freertos_fpga/production/_ext/101992513/drv_i3c.o

.text.z_snode_next_set%432
                0x00000000000bbe90       0x1c
 .text.z_snode_next_set
                0x00000000000bbe90       0x1c build/kf_freertos_fpga/production/_ext/1886205328/i3c_common.o

.text.z_slist_head_set%433
                0x00000000000bbeac       0x1c
 .text.z_slist_head_set
                0x00000000000bbeac       0x1c build/kf_freertos_fpga/production/_ext/1886205328/i3c_common.o

.text.z_slist_tail_set%434
                0x00000000000bbec8       0x1c
 .text.z_slist_tail_set
                0x00000000000bbec8       0x1c build/kf_freertos_fpga/production/_ext/1886205328/i3c_common.o

.text.I3C_TGT_IBI_SIR_Residual_handle%435
                0x00000000000bbee4       0x1c
 .text.I3C_TGT_IBI_SIR_Residual_handle
                0x00000000000bbee4       0x1c build/kf_freertos_fpga/production/_ext/825500651/plib_i3c.o
                0x00000000000bbee4                I3C_TGT_IBI_SIR_Residual_handle

.text.I3C_Xfer_Error_Resume%436
                0x00000000000bbf00       0x1c
 .text.I3C_Xfer_Error_Resume
                0x00000000000bbf00       0x1c build/kf_freertos_fpga/production/_ext/825500651/plib_i3c.o
                0x00000000000bbf00                I3C_Xfer_Error_Resume

.text._i3c_intr_sts_clear%437
                0x00000000000bbf1c       0x1c
 .text._i3c_intr_sts_clear
                0x00000000000bbf1c       0x1c build/kf_freertos_fpga/production/_ext/825500651/plib_i3c_private.o
                0x00000000000bbf1c                _i3c_intr_sts_clear

.text._i3c_intr_sts_enable%438
                0x00000000000bbf38       0x1c
 .text._i3c_intr_sts_enable
                0x00000000000bbf38       0x1c build/kf_freertos_fpga/production/_ext/825500651/plib_i3c_private.o
                0x00000000000bbf38                _i3c_intr_sts_enable

.text._i3c_intr_sgnl_enable%439
                0x00000000000bbf54       0x1c
 .text._i3c_intr_sgnl_enable
                0x00000000000bbf54       0x1c build/kf_freertos_fpga/production/_ext/825500651/plib_i3c_private.o
                0x00000000000bbf54                _i3c_intr_sgnl_enable

.text._i3c_command_write%440
                0x00000000000bbf70       0x1c
 .text._i3c_command_write
                0x00000000000bbf70       0x1c build/kf_freertos_fpga/production/_ext/825500651/plib_i3c_private.o
                0x00000000000bbf70                _i3c_command_write

.text._i3c_tgt_dyn_addr_valid_get%441
                0x00000000000bbf8c       0x1c
 .text._i3c_tgt_dyn_addr_valid_get
                0x00000000000bbf8c       0x1c build/kf_freertos_fpga/production/_ext/825500651/plib_i3c_private.o
                0x00000000000bbf8c                _i3c_tgt_dyn_addr_valid_get

.text.vTaskSuspendAll%442
                0x00000000000bbfa8       0x1c
 .text.vTaskSuspendAll
                0x00000000000bbfa8       0x1c build/kf_freertos_fpga/production/_ext/404212886/FreeRTOS_tasks.o
                0x00000000000bbfa8                vTaskSuspendAll

.text.memcpy%443
                0x00000000000bbfc4       0x1c
 .text.memcpy   0x00000000000bbfc4       0x1c c:/program files/microchip/xc32/v4.45/bin/bin/../../lib/gcc/pic32c/8.3.1/../../../../pic32c/lib/thumb/v7e-m+fp/hard\libc-size-musl.a(memcpy.o)
                0x00000000000bbfc4                memcpy

.text._i3c_tx_fifo_rst%444
                0x00000000000bbfe0       0x1a
 .text._i3c_tx_fifo_rst
                0x00000000000bbfe0       0x1a build/kf_freertos_fpga/production/_ext/825500651/plib_i3c_private.o
                0x00000000000bbfe0                _i3c_tx_fifo_rst

.text._i3c_rx_fifo_rst%445
                0x00000000000bbffa       0x1a
 .text._i3c_rx_fifo_rst
                0x00000000000bbffa       0x1a build/kf_freertos_fpga/production/_ext/825500651/plib_i3c_private.o
                0x00000000000bbffa                _i3c_rx_fifo_rst

.text._i3c_cmd_queue_rst%446
                0x00000000000bc014       0x1a
 .text._i3c_cmd_queue_rst
                0x00000000000bc014       0x1a build/kf_freertos_fpga/production/_ext/825500651/plib_i3c_private.o
                0x00000000000bc014                _i3c_cmd_queue_rst

.text.vApplicationMallocFailedHook%447
                0x00000000000bc02e       0x1a
 .text.vApplicationMallocFailedHook
                0x00000000000bc02e       0x1a build/kf_freertos_fpga/production/_ext/29258880/freertos_hooks.o
                0x00000000000bc02e                vApplicationMallocFailedHook

.text.vListInitialiseItem%448
                0x00000000000bc048       0x1a
 .text.vListInitialiseItem
                0x00000000000bc048       0x1a build/kf_freertos_fpga/production/_ext/404212886/list.o
                0x00000000000bc048                vListInitialiseItem

.rodata.__FUNCTION__.11782%449
                0x00000000000bc064       0x18
 .rodata.__FUNCTION__.11782
                0x00000000000bc064       0x18 build/kf_freertos_fpga/production/_ext/101992513/drv_i3c.o

.rodata.__FUNCTION__.11875%450
                0x00000000000bc07c       0x18
 .rodata.__FUNCTION__.11875
                0x00000000000bc07c       0x18 build/kf_freertos_fpga/production/_ext/101992513/drv_i3c.o

.text.z_snode_next_peek%451
                0x00000000000bc094       0x18
 .text.z_snode_next_peek
                0x00000000000bc094       0x18 build/kf_freertos_fpga/production/_ext/1886205328/i3c_common.o

.text.sys_slist_peek_head%452
                0x00000000000bc0ac       0x18
 .text.sys_slist_peek_head
                0x00000000000bc0ac       0x18 build/kf_freertos_fpga/production/_ext/1886205328/i3c_common.o

.text.sys_slist_peek_tail%453
                0x00000000000bc0c4       0x18
 .text.sys_slist_peek_tail
                0x00000000000bc0c4       0x18 build/kf_freertos_fpga/production/_ext/1886205328/i3c_common.o

.text.sys_slist_peek_next_no_check%454
                0x00000000000bc0dc       0x18
 .text.sys_slist_peek_next_no_check
                0x00000000000bc0dc       0x18 build/kf_freertos_fpga/production/_ext/1886205328/i3c_common.o

.text.I3C_TGT_is_dyn_addr_valid%455
                0x00000000000bc0f4       0x18
 .text.I3C_TGT_is_dyn_addr_valid
                0x00000000000bc0f4       0x18 build/kf_freertos_fpga/production/_ext/825500651/plib_i3c.o
                0x00000000000bc0f4                I3C_TGT_is_dyn_addr_valid

.text.I3C_TGT_dyn_addr_get%456
                0x00000000000bc10c       0x18
 .text.I3C_TGT_dyn_addr_get
                0x00000000000bc10c       0x18 build/kf_freertos_fpga/production/_ext/825500651/plib_i3c.o
                0x00000000000bc10c                I3C_TGT_dyn_addr_get

.text._i3c_intr_sts_get%457
                0x00000000000bc124       0x18
 .text._i3c_intr_sts_get
                0x00000000000bc124       0x18 build/kf_freertos_fpga/production/_ext/825500651/plib_i3c_private.o
                0x00000000000bc124                _i3c_intr_sts_get

.text.vPortEnableVFP%458
                0x00000000000bc13c       0x18
 .text.vPortEnableVFP
                0x00000000000bc13c       0x18 build/kf_freertos_fpga/production/_ext/246609638/port.o

.text.vTaskMissedYield%459
                0x00000000000bc154       0x18
 .text.vTaskMissedYield
                0x00000000000bc154       0x18 build/kf_freertos_fpga/production/_ext/404212886/FreeRTOS_tasks.o
                0x00000000000bc154                vTaskMissedYield

.rodata.__FUNCTION__.11441%460
                0x00000000000bc16c       0x18
 .rodata.__FUNCTION__.11441
                0x00000000000bc16c       0x18 build/kf_freertos_fpga/production/_ext/1521323865/tgt_test_pvt_xfer.o

.rodata.__FUNCTION__.11449%461
                0x00000000000bc184       0x18
 .rodata.__FUNCTION__.11449
                0x00000000000bc184       0x18 build/kf_freertos_fpga/production/_ext/1521323865/tgt_test_pvt_xfer.o

.rodata.__FUNCTION__.11464%462
                0x00000000000bc19c       0x18
 .rodata.__FUNCTION__.11464
                0x00000000000bc19c       0x18 build/kf_freertos_fpga/production/_ext/1521323865/tgt_test_pvt_xfer.o

.rodata.__FUNCTION__.11469%463
                0x00000000000bc1b4       0x18
 .rodata.__FUNCTION__.11469
                0x00000000000bc1b4       0x18 build/kf_freertos_fpga/production/_ext/1521323865/tgt_test_pvt_xfer.o

.text.TASK2_Initialize%464
                0x00000000000bc1cc       0x18
 .text.TASK2_Initialize
                0x00000000000bc1cc       0x18 build/kf_freertos_fpga/production/_ext/1360937237/task2.o
                0x00000000000bc1cc                TASK2_Initialize

.text.TASK3_Initialize%465
                0x00000000000bc1e4       0x18
 .text.TASK3_Initialize
                0x00000000000bc1e4       0x18 build/kf_freertos_fpga/production/_ext/1360937237/task3.o
                0x00000000000bc1e4                TASK3_Initialize

.text.DRV_IBI_Task%466
                0x00000000000bc1fc       0x16
 .text.DRV_IBI_Task
                0x00000000000bc1fc       0x16 build/kf_freertos_fpga/production/_ext/101992513/drv_i3c.o
                0x00000000000bc1fc                DRV_IBI_Task

.text.DRV_TGT_RX_Task%467
                0x00000000000bc212       0x16
 .text.DRV_TGT_RX_Task
                0x00000000000bc212       0x16 build/kf_freertos_fpga/production/_ext/101992513/drv_i3c.o
                0x00000000000bc212                DRV_TGT_RX_Task

.text.DRV_TGT_TX_Done_Task%468
                0x00000000000bc228       0x16
 .text.DRV_TGT_TX_Done_Task
                0x00000000000bc228       0x16 build/kf_freertos_fpga/production/_ext/101992513/drv_i3c.o
                0x00000000000bc228                DRV_TGT_TX_Done_Task

.text.I3C_Soft_Reset%469
                0x00000000000bc23e       0x16
 .text.I3C_Soft_Reset
                0x00000000000bc23e       0x16 build/kf_freertos_fpga/production/_ext/825500651/plib_i3c.o
                0x00000000000bc23e                I3C_Soft_Reset

.text.I3C_Xfer_Reset%470
                0x00000000000bc254       0x16
 .text.I3C_Xfer_Reset
                0x00000000000bc254       0x16 build/kf_freertos_fpga/production/_ext/825500651/plib_i3c.o
                0x00000000000bc254                I3C_Xfer_Reset

.rodata.__FUNCTION__.11765%471
                0x00000000000bc26c       0x14
 .rodata.__FUNCTION__.11765
                0x00000000000bc26c       0x14 build/kf_freertos_fpga/production/_ext/101992513/drv_i3c.o

.rodata.__FUNCTION__.11864%472
                0x00000000000bc280       0x14
 .rodata.__FUNCTION__.11864
                0x00000000000bc280       0x14 build/kf_freertos_fpga/production/_ext/101992513/drv_i3c.o

.rodata.__FUNCTION__.10373%473
                0x00000000000bc294       0x14
 .rodata.__FUNCTION__.10373
                0x00000000000bc294       0x14 build/kf_freertos_fpga/production/_ext/825500651/plib_i3c.o

.text.vPortFree%474
                0x00000000000bc2a8       0x14
 .text.vPortFree
                0x00000000000bc2a8       0x14 build/kf_freertos_fpga/production/_ext/1665200909/heap_1.o
                0x00000000000bc2a8                vPortFree

.text.get_task1_context%475
                0x00000000000bc2bc       0x14
 .text.get_task1_context
                0x00000000000bc2bc       0x14 build/kf_freertos_fpga/production/_ext/1360937237/task1.o
                0x00000000000bc2bc                get_task1_context

.text.get_task2_context%476
                0x00000000000bc2d0       0x14
 .text.get_task2_context
                0x00000000000bc2d0       0x14 build/kf_freertos_fpga/production/_ext/1360937237/task2.o
                0x00000000000bc2d0                get_task2_context

.rodata%477     0x00000000000bc2e4       0x14
 .rodata        0x00000000000bc2e4       0x14 c:/program files/microchip/xc32/v4.45/bin/bin/../../lib/gcc/pic32c/8.3.1/../../../../pic32c/lib/thumb/v7e-m+fp/hard\libpic32c.a(data_init.o)

.text.memset%478
                0x00000000000bc2f8       0x14
 .text.memset   0x00000000000bc2f8       0x14 c:/program files/microchip/xc32/v4.45/bin/bin/../../lib/gcc/pic32c/8.3.1/../../../../pic32c/lib/thumb/v7e-m+fp/hard\libc-size-musl.a(memset.o)
                0x00000000000bc2f8                memset

.text.__dinit_clear%479
                0x00000000000bc30c       0x12
 .text.__dinit_clear
                0x00000000000bc30c       0x12 c:/program files/microchip/xc32/v4.45/bin/bin/../../lib/gcc/pic32c/8.3.1/../../../../pic32c/lib/thumb/v7e-m+fp/hard\libpic32c.a(pic32_data_init_clear.o)
                0x00000000000bc30c                __dinit_clear
                0x00000000000bc30c                __dinit_clear_needed

.rodata.__FUNCTION__.11600%480
                0x00000000000bc320       0x10
 .rodata.__FUNCTION__.11600
                0x00000000000bc320       0x10 build/kf_freertos_fpga/production/_ext/101992513/drv_i3c.o

.rodata.__FUNCTION__.11459%481
                0x00000000000bc330       0x10
 .rodata.__FUNCTION__.11459
                0x00000000000bc330       0x10 build/kf_freertos_fpga/production/_ext/1521323865/tgt_test_pvt_xfer.o

.rodata.__FUNCTION__.11473%482
                0x00000000000bc340       0x10
 .rodata.__FUNCTION__.11473
                0x00000000000bc340       0x10 build/kf_freertos_fpga/production/_ext/1521323865/tgt_test_pvt_xfer.o

.text.main%483  0x00000000000bc350       0x10
 .text.main     0x00000000000bc350       0x10 build/kf_freertos_fpga/production/_ext/1360937237/main.o
                0x00000000000bc350                main

.text.EC_REG_BANK_Initialize%484
                0x00000000000bc360        0xe
 .text.EC_REG_BANK_Initialize
                0x00000000000bc360        0xe build/kf_freertos_fpga/production/_ext/868947740/plib_ec_reg_bank.o
                0x00000000000bc360                EC_REG_BANK_Initialize

.text._TASK1_Tasks%485
                0x00000000000bc36e        0xe
 .text._TASK1_Tasks
                0x00000000000bc36e        0xe build/kf_freertos_fpga/production/_ext/29258880/tasks.o
                0x00000000000bc36e                _TASK1_Tasks

.text._TASK2_Tasks%486
                0x00000000000bc37c        0xe
 .text._TASK2_Tasks
                0x00000000000bc37c        0xe build/kf_freertos_fpga/production/_ext/29258880/tasks.o
                0x00000000000bc37c                _TASK2_Tasks

.text._TASK3_Tasks%487
                0x00000000000bc38a        0xe
 .text._TASK3_Tasks
                0x00000000000bc38a        0xe build/kf_freertos_fpga/production/_ext/29258880/tasks.o
                0x00000000000bc38a                _TASK3_Tasks

.text.trace_init%488
                0x00000000000bb884        0xc
 .text.trace_init
                0x00000000000bb884        0xc build/kf_freertos_fpga/production/_ext/1420773124/trace.o
                0x00000000000bb884                trace_init

.text.GIRQ13_Handler%489
                0x00000000000bc398        0xc
 .text.GIRQ13_Handler
                0x00000000000bc398        0xc build/kf_freertos_fpga/production/_ext/29258880/interrupts.o
                0x00000000000bc398                GIRQ13_Handler

.rodata%490     0x00000000000b8818        0x8
 .rodata        0x00000000000b8818        0x8 build/kf_freertos_fpga/production/_ext/404212886/timers.o

.rodata%491     0x00000000000bc3a4        0x8
 .rodata        0x00000000000bc3a4        0x8 build/kf_freertos_fpga/production/_ext/404212886/FreeRTOS_tasks.o

.text.NonMaskableInt_Handler%492
                0x00000000000bc3ac        0x6
 .text.NonMaskableInt_Handler
                0x00000000000bc3ac        0x6 build/kf_freertos_fpga/production/_ext/29258880/exceptions.o
                0x00000000000bc3ac                NonMaskableInt_Handler

.text.HardFault_Handler%493
                0x00000000000bc3b2        0x6
 .text.HardFault_Handler
                0x00000000000bc3b2        0x6 build/kf_freertos_fpga/production/_ext/29258880/exceptions.o
                0x00000000000bc3b2                HardFault_Handler

.text.DebugMonitor_Handler%494
                0x00000000000bc3b8        0x6
 .text.DebugMonitor_Handler
                0x00000000000bc3b8        0x6 build/kf_freertos_fpga/production/_ext/29258880/exceptions.o
                0x00000000000bc3b8                DebugMonitor_Handler

.text.MemoryManagement_Handler%495
                0x00000000000bc3be        0x6
 .text.MemoryManagement_Handler
                0x00000000000bc3be        0x6 build/kf_freertos_fpga/production/_ext/29258880/exceptions.o
                0x00000000000bc3be                MemoryManagement_Handler

.text.BusFault_Handler%496
                0x00000000000bc3c4        0x6
 .text.BusFault_Handler
                0x00000000000bc3c4        0x6 build/kf_freertos_fpga/production/_ext/29258880/exceptions.o
                0x00000000000bc3c4                BusFault_Handler

.text.UsageFault_Handler%497
                0x00000000000bc3ca        0x6
 .text.UsageFault_Handler
                0x00000000000bc3ca        0x6 build/kf_freertos_fpga/production/_ext/29258880/exceptions.o
                0x00000000000bc3ca                UsageFault_Handler

.text.__dummy_decompress%498
                0x00000000000bc3d0        0x4
 .text.__dummy_decompress
                0x00000000000bc3d0        0x4 c:/program files/microchip/xc32/v4.45/bin/bin/../../lib/gcc/pic32c/8.3.1/../../../../pic32c/lib/thumb/v7e-m+fp/hard\libpic32c.a(data_init.o)
                0x00000000000bc3d0                __dinit_copy_val_data
                0x00000000000bc3d0                __dinit_copy_emb

.text.Dummy_Handler%499
                0x00000000000b3e7a        0x2
 .text.Dummy_Handler
                0x00000000000b3e7a        0x2 build/kf_freertos_fpga/production/_ext/29258880/interrupts.o
                0x00000000000b3e7a                GIRQ17_Handler
                0x00000000000b3e7a                RNG_Handler
                0x00000000000b3e7a                QMSPI0_Handler
                0x00000000000b3e7a                SWI0_Handler
                0x00000000000b3e7a                DMA_CH03_Handler
                0x00000000000b3e7a                TIMER32_1_Handler
                0x00000000000b3e7a                SWI3_Handler
                0x00000000000b3e7a                LED1_Handler
                0x00000000000b3e7a                IMSPI_Handler
                0x00000000000b3e7a                GIRQ16_Handler
                0x00000000000b3e7a                I2CSMB2_Handler
                0x00000000000b3e7a                SPIMON1_MTMON_Handler
                0x00000000000b3e7a                DMA_CH07_Handler
                0x00000000000b3e7a                I2CSMB4_Handler
                0x00000000000b3e7a                SPIMON0_MTMON_Handler
                0x00000000000b3e7a                SPT0_Handler
                0x00000000000b3e7a                I2CSMB1_Handler
                0x00000000000b3e7a                CCT_CMP0_Handler
                0x00000000000b3e7a                DMA_CH09_Handler
                0x00000000000b3e7a                HASH_Handler
                0x00000000000b3e7a                I2CSMB3_Handler
                0x00000000000b3e7a                GIRQ14_Handler
                0x00000000000b3e7a                WDT_Handler
                0x00000000000b3e7a                SPIMON0_VLTN_Handler
                0x00000000000b3e7a                SPIMON1_VLTN_Handler
                0x00000000000b3e7a                GIRQ15_Handler
                0x00000000000b3e7a                LED0_Handler
                0x00000000000b3e7a                GIRQ12_Handler
                0x00000000000b3e7a                DMA_CH00_Handler
                0x00000000000b3e7a                Dummy_Handler
                0x00000000000b3e7a                GIRQ10_Handler
                0x00000000000b3e7a                CCT_Handler
                0x00000000000b3e7a                PKE_ERR_Handler
                0x00000000000b3e7a                VTR2_PAD_MON_Handler
                0x00000000000b3e7a                QMSPI1_Handler
                0x00000000000b3e7a                DMA_CH08_Handler
                0x00000000000b3e7a                I2CSMB0_Handler
                0x00000000000b3e7a                DMA_CH06_Handler
                0x00000000000b3e7a                CCT_CAP1_Handler
                0x00000000000b3e7a                DMA_CH05_Handler
                0x00000000000b3e7a                SPIMON1_LTMON_Handler
                0x00000000000b3e7a                GIRQ20_Handler
                0x00000000000b3e7a                SPIMON0_LTMON_Handler
                0x00000000000b3e7a                SWI2_Handler
                0x00000000000b3e7a                CCT_CAP3_Handler
                0x00000000000b3e7a                CCT_CAP0_Handler
                0x00000000000b3e7a                SPT1_Handler
                0x00000000000b3e7a                VTR1_PAD_MON_Handler
                0x00000000000b3e7a                EMC_Handler
                0x00000000000b3e7a                CCT_CAP2_Handler
                0x00000000000b3e7a                SWI1_Handler
                0x00000000000b3e7a                UART0_InterruptHandler
                0x00000000000b3e7a                DMA_CH01_Handler
                0x00000000000b3e7a                GIRQ11_Handler
                0x00000000000b3e7a                CCT_CAP4_Handler
                0x00000000000b3e7a                CCT_CAP5_Handler
                0x00000000000b3e7a                HTMR1_Handler
                0x00000000000b3e7a                DMA_CH02_Handler
                0x00000000000b3e7a                PKE_END_Handler
                0x00000000000b3e7a                DMA_CH04_Handler
                0x00000000000b3e7a                GIRQ24_Handler
                0x00000000000b3e7a                GIRQ18_Handler
                0x00000000000b3e7a                GIRQ08_Handler
                0x00000000000b3e7a                GIRQ09_Handler
                0x00000000000b3e7a                HTMR0_Handler
                0x00000000000b3e7a                GIRQ26_Handler
                0x00000000000b3e7a                CLK_MON_Handler
                0x00000000000b3e7a                GIRQ23_Handler
                0x00000000000b3e7a                CCT_CMP1_Handler
                0x00000000000b3e7a                GIRQ21_Handler
                0x00000000000b3e7a                TIMER32_0_Handler
                0x00000000000b3e7a                AES_Handler
                0x00000000000b3e7a                RTMR_Handler

.text.Dummy_App_Func%500
                0x00000000000b543a        0x2
 .text.Dummy_App_Func
                0x00000000000b543a        0x2 build/kf_freertos_fpga/production/_ext/29258880/startup_xc32.o
                0x00000000000b543a                _on_reset
                0x00000000000b543a                _on_bootstrap
                0x00000000000b543a                __xc32_on_reset
                0x00000000000b543a                Dummy_App_Func
                0x00000000000b543a                __xc32_on_bootstrap

.text.__dummy%501
                0x00000000000b5c02        0x2
 .text.__dummy  0x00000000000b5c02        0x2 c:/program files/microchip/xc32/v4.45/bin/bin/../../lib/gcc/pic32c/8.3.1/../../../../pic32c/lib/thumb/v7e-m+fp/hard\libc-musl.a(__libc_start_main.o)
                0x00000000000b5c02                __init_stdio
                0x00000000000b5c02                __init_host
